Archive member included because of file (symbol)

/home/lego/Documents/gnatmindstorms2011/bin/../lib/gcc/arm-eabi/4.5.3/libgcc.a(_udivsi3.o)
                              ./a-reatim.o (__aeabi_uidiv)
/home/lego/Documents/gnatmindstorms2011/bin/../lib/gcc/arm-eabi/4.5.3/libgcc.a(_divsi3.o)
                              ./nxt-audio.o (__aeabi_idiv)
/home/lego/Documents/gnatmindstorms2011/bin/../lib/gcc/arm-eabi/4.5.3/libgcc.a(_dvmd_tls.o)
                              /home/lego/Documents/gnatmindstorms2011/bin/../lib/gcc/arm-eabi/4.5.3/libgcc.a(_udivsi3.o) (__aeabi_idiv0)
/home/lego/Documents/gnatmindstorms2011/bin/../lib/gcc/arm-eabi/4.5.3/libgcc.a(_arm_addsubsf3.o)
                              ./nxt-battery.o (__aeabi_ui2f)
/home/lego/Documents/gnatmindstorms2011/bin/../lib/gcc/arm-eabi/4.5.3/libgcc.a(_arm_muldivsf3.o)
                              ./nxt-battery.o (__aeabi_fmul)
/home/lego/Documents/gnatmindstorms2011/bin/../lib/gcc/arm-eabi/4.5.3/libgcc.a(_aeabi_ldivmod.o)
                              ./a-reatim.o (__aeabi_ldivmod)
/home/lego/Documents/gnatmindstorms2011/bin/../lib/gcc/arm-eabi/4.5.3/libgcc.a(_aeabi_uldivmod.o)
                              ./a-reatim.o (__aeabi_uldivmod)
/home/lego/Documents/gnatmindstorms2011/bin/../lib/gcc/arm-eabi/4.5.3/libgcc.a(bpabi.o)
                              /home/lego/Documents/gnatmindstorms2011/bin/../lib/gcc/arm-eabi/4.5.3/libgcc.a(_aeabi_ldivmod.o) (__gnu_ldivmod_helper)
/home/lego/Documents/gnatmindstorms2011/bin/../lib/gcc/arm-eabi/4.5.3/libgcc.a(_divdi3.o)
                              /home/lego/Documents/gnatmindstorms2011/bin/../lib/gcc/arm-eabi/4.5.3/libgcc.a(bpabi.o) (__divdi3)
/home/lego/Documents/gnatmindstorms2011/bin/../lib/gcc/arm-eabi/4.5.3/libgcc.a(_udivdi3.o)
                              /home/lego/Documents/gnatmindstorms2011/bin/../lib/gcc/arm-eabi/4.5.3/libgcc.a(bpabi.o) (__udivdi3)
/home/lego/Documents/gnatmindstorms2011/bin/../lib/gcc/arm-eabi/4.5.3/libgcc.a(_clzsi2.o)
                              /home/lego/Documents/gnatmindstorms2011/bin/../lib/gcc/arm-eabi/4.5.3/libgcc.a(_divdi3.o) (__clzsi2)

Memory Configuration

Name             Origin             Length             Attributes
vector_ram       0x00200000         0x00000040
ram              0x00202000         0x0000e000
*default*        0x00000000         0xffffffff

Linker script and memory map

LOAD b~tests.o
LOAD vectors.o
LOAD init.o
LOAD main.o
LOAD irq.o
LOAD context_switch-bb-arm.o
LOAD ./ada.o
LOAD ./interfac.o
LOAD ./i-c.o
LOAD ./system.o
LOAD ./a-except.o
LOAD ./s-bb.o
LOAD ./s-maccod.o
LOAD ./s-parame.o
LOAD ./s-stoele.o
LOAD ./s-bbpara.o
LOAD ./s-bbpere.o
LOAD ./s-multip.o
LOAD ./s-bcprmu.o
LOAD ./s-bbperi.o
LOAD ./s-bbthqu.o
LOAD ./s-bbthre.o
LOAD ./s-bbinte.o
LOAD ./s-bbtime.o
LOAD ./s-bbcppr.o
LOAD ./s-bbprot.o
LOAD ./s-musplo.o
LOAD ./s-osinte.o
LOAD ./s-mufalo.o
LOAD ./s-tasinf.o
LOAD ./s-taspri.o
LOAD ./s-tasdeb.o
LOAD ./s-taprop.o
LOAD ./s-unstyp.o
LOAD ./a-reatim.o
LOAD ./a-retide.o
LOAD ./s-taskin.o
LOAD ./s-secsta.o
LOAD ./s-taprob.o
LOAD ./s-tpobmu.o
LOAD ./s-tposen.o
LOAD ./s-interr.o
LOAD ./a-interr.o
LOAD ./s-tasres.o
LOAD ./s-tarest.o
LOAD ./memory_compare.o
LOAD ./memory_copy.o
LOAD ./memory_set.o
LOAD ./nxt.o
LOAD ./nxt-registers.o
LOAD ./nxt-audio.o
LOAD ./nxt-bc4-messages.o
LOAD ./nxt-bc4.o
LOAD ./nxt-bluetooth.o
LOAD ./nxt-buffers.o
LOAD ./nxt-bc4-io.o
LOAD ./nxt-filtering.o
LOAD ./nxt-last_chance.o
LOAD ./nxt-fonts.o
LOAD ./nxt-motor_encoders.o
LOAD ./nxt-priorities.o
LOAD ./nxt-spi.o
LOAD ./nxt-lcd.o
LOAD ./nxt-display.o
LOAD ./nxt-twi.o
LOAD ./nxt-avr_io.o
LOAD ./nxt-avr.o
LOAD ./nxt-battery.o
LOAD ./menus.o
LOAD ./menu_tests.o
LOAD ./menu_sounds.o
LOAD ./menu_motors.o
LOAD ./menu_bt.o
LOAD ./tests.o
LOAD /home/lego/Documents/gnatmindstorms2011/bin/../lib/gcc/arm-eabi/4.5.3/libgcc.a
LOAD /home/lego/Documents/gnatmindstorms2011/lib/gcc/arm-eabi/4.5.3/rts-ravenscar-sfp/adalib/libgnarl.a
LOAD /home/lego/Documents/gnatmindstorms2011/lib/gcc/arm-eabi/4.5.3/rts-ravenscar-sfp/adalib/libgnat.a
                0x00200000                RAM_BASE = 0x200000
                0x00010000                RAM_SIZE = 0x10000

.vectors        0x00200000       0x40 load address 0x00202000
 *(.vectors)
 .vectors       0x00200000       0x3c vectors.o
                0x00200040                . = ALIGN (0x10)
 *fill*         0x0020003c        0x4 00
                0x00200000                __vectors_ram_start__ = ADDR (.vectors)
                0x00200040                __vectors_ram_end__ = (ADDR (.vectors) + SIZEOF (.vectors))
                0x00202000                __vectors_load_start__ = LOADADDR (.vectors)
                0x00202040                __vectors_load_end__ = (LOADADDR (.vectors) + SIZEOF (.vectors))

.text           0x00202040     0x9c60
                0x00202040                . = ALIGN (0x10)
 *(*.text *.text.* *.glue*)
 .glue_7        0x00000000        0x0 linker stubs
 .glue_7t       0x00000000        0x0 linker stubs
 .text          0x00202040      0x300 b~tests.o
                0x00202040                adainit
                0x00202320                main
 .text          0x00202340        0x0 vectors.o
 .text          0x00202340      0x270 init.o
                0x00202340                start
                0x0020249c                undef_handler
                0x002024a0                swi_handler
                0x002024a4                prefetch_abort_handler
                0x002024a8                data_abort_handler
                0x002024c4                reserved_handler
 .text          0x002025b0       0x38 main.o
                0x002025b0                nxt_main
                0x002025c0                data_abort_pc
                0x002025c4                data_abort_C
                0x002025c8                __aeabi_unwind_cpp_pr0
 .text          0x002025e8       0x48 irq.o
                0x002025e8                irq_handler
 .text          0x00202630       0x2c context_switch-bb-arm.o
                0x00202630                context_switch
 .text          0x0020265c        0x0 ./ada.o
 .text          0x0020265c        0x0 ./interfac.o
 .text          0x0020265c        0x8 ./i-c.o
                0x0020265c                interfaces__c__char_arrayIP
                0x00202660                interfaces__c__wchar_arrayIP
 .text          0x00202664        0x0 ./system.o
 .text          0x00202664       0x10 ./a-except.o
                0x00202664                ada__exceptions__raise_exception
 .text          0x00202674        0x0 ./s-bb.o
 .text          0x00202674        0x8 ./s-maccod.o
                0x00202674                system__machine_code__asm_input_operand_listIP
                0x00202678                system__machine_code__asm_output_operand_listIP
 .text          0x0020267c        0xc ./s-parame.o
                0x0020267c                system__parameters__adjust_storage_size
 .text          0x00202688       0x58 ./s-stoele.o
                0x00202688                system__storage_elements__storage_arrayIP
                0x0020268c                system__storage_elements__to_address
                0x00202690                system__storage_elements__to_integer
                0x00202694                system__storage_elements__Oadd
                0x0020269c                system__storage_elements__Oadd__2
                0x002026a4                system__storage_elements__Osubtract
                0x002026ac                system__storage_elements__Osubtract__2
                0x002026b4                system__storage_elements__Omod
 .text          0x002026e0        0x0 ./s-bbpara.o
 .text          0x002026e0        0xc ./s-bbpere.o
                0x002026e0                system__bb__peripherals__registers__Taic_smr_arrayBIP
                0x002026e4                system__bb__peripherals__registers__Taic_svr_arrayBIP
                0x002026e8                system__bb__peripherals__registers__Tadc_cdrBIP
 .text          0x002026ec        0x8 ./s-multip.o
                0x002026ec                system__multiprocessors__number_of_cpus
 .text          0x002026f4       0x14 ./s-bcprmu.o
                0x002026f4                system__bb__cpu_primitives__multiprocessors__current_cpu
                0x002026fc                system__bb__cpu_primitives__multiprocessors__poke_cpu
                0x00202700                system__bb__cpu_primitives__multiprocessors__start_cpu
                0x00202704                system__bb__cpu_primitives__multiprocessors__start_all_cpus
 .text          0x00202708       0x1c ./s-bbperi.o
                0x00202708                system__bb__peripherals__initialize_board
                0x0020270c                system__bb__peripherals__level_of_interrupt
                0x00202714                system__bb__peripherals__priority_of_interrupt
                0x0020271c                system__bb__peripherals__ticks_per_second
 .text          0x00202724      0x36c ./s-bbthqu.o
                0x00202724                system__bb__threads__queues__change_priority
                0x0020279c                system__bb__threads__queues__current_priority
                0x002027cc                system__bb__threads__queues__extract
                0x00202804                system__bb__threads__queues__extract_first_alarm
                0x00202840                system__bb__threads__queues__first_thread
                0x00202868                system__bb__threads__queues__get_next_alarm_time
                0x0020288c                system__bb__threads__queues__insert
                0x00202920                system__bb__threads__queues__insert_alarm
                0x002029ac                system__bb__threads__queues__running_thread
                0x002029d0                system__bb__threads__queues__wakeup_expired_alarms
                0x00202a1c                system__bb__threads__queues__yield
 .text          0x00202a90      0x314 ./s-bbthre.o
                0x00202a90                system__bb__threads__thread_descriptorIP
                0x00202aa4                system__bb__threads__Tslave_stacksBIP
                0x00202aa8                system__bb__threads__Tslave_stacks_tableBIP
                0x00202aac                system__bb__threads__get_affinity
                0x00202ab4                system__bb__threads__get_cpu
                0x00202ac4                system__bb__threads__get_atcb
                0x00202ad8                system__bb__threads__get_priority
                0x00202ae0                system__bb__threads__initialize
                0x00202bb4                system__bb__threads__initialize_slave_environment
                0x00202c4c                system__bb__threads__set_atcb
                0x00202c64                system__bb__threads__set_priority
                0x00202c88                system__bb__threads__sleep
                0x00202cc4                system__bb__threads__thread_create
                0x00202d5c                system__bb__threads__thread_self
                0x00202d6c                system__bb__threads__wakeup
 .text          0x00202da4      0x1e0 ./s-bbinte.o
                0x00202da8                system__bb__interrupts__Tinterrupt_handlersBIP
                0x00202ddc                system__bb__interrupts__attach_handler__2
                0x00202e00                system__bb__interrupts__attach_handler
                0x00202e28                system__bb__interrupts__current_interrupt
                0x00202e38                irq_handler_ada
                0x00202ebc                system__bb__interrupts__within_interrupt_stack
                0x00202ec4                system__bb__interrupts__initialize_interrupts
                0x00202f2c                system__bb__interrupts__enable_interrupt
                0x00202f48                system__bb__interrupts__disable_interrupt
                0x00202f64                system__bb__interrupts___elabb
 .text          0x00202f84      0x10c ./s-bbtime.o
                0x00202fd8                system__bb__time__update_alarm
                0x00202fdc                system__bb__time__clock
                0x00202fec                system__bb__time__delay_until
                0x00203040                system__bb__time__get_next_timeout
                0x00203050                system__bb__time__initialize_timers
 .text          0x00203090       0x40 ./s-bbcppr.o
                0x00203090                system__bb__cpu_primitives__Tcontext_bufferBIP
                0x00203094                system__bb__cpu_primitives__initialize_context
                0x002030a4                system__bb__cpu_primitives__initialize_floating_point
                0x002030a8                system__bb__cpu_primitives__disable_interrupts
                0x002030b8                system__bb__cpu_primitives__enable_interrupts
 .text          0x002030d0      0x11c ./s-bbprot.o
                0x002030d0                system__bb__protection__enter_kernel
                0x002030e0                context_switch_needed
                0x00203100                system__bb__protection__leave_kernel
 .text          0x002031ec       0x24 ./s-musplo.o
                0x002031ec                system__multiprocessors__spin_locks__spin_lockIP
                0x002031f8                system__multiprocessors__spin_locks__lock
                0x002031fc                system__multiprocessors__spin_locks__locked
                0x00203204                system__multiprocessors__spin_locks__try_lock
                0x0020320c                system__multiprocessors__spin_locks__unlock
 .text          0x00203210        0x0 ./s-osinte.o
 .text          0x00203210      0x110 ./s-mufalo.o
                0x00203210                system__multiprocessors__fair_locks__Tspinning_arrayBIP
                0x00203214                system__multiprocessors__fair_locks__fair_lockIP
                0x00203224                system__multiprocessors__fair_locks__initialize
                0x00203244                system__multiprocessors__fair_locks__lock
                0x002032ac                system__multiprocessors__fair_locks__locked
                0x002032c0                system__multiprocessors__fair_locks__next_spinning
                0x002032d0                system__multiprocessors__fair_locks__try_lock
                0x002032e4                system__multiprocessors__fair_locks__unlock
 .text          0x00203320        0x0 ./s-tasinf.o
 .text          0x00203320       0x1c ./s-taspri.o
                0x00203320                system__task_primitives__private_dataIP
 .text          0x0020333c       0x24 ./s-tasdeb.o
                0x0020333c                system__tasking__debug__add_task_id
 .text          0x00203360      0x1a8 ./s-taprop.o
                0x00203360                system__task_primitives__operations__self
                0x00203370                system__task_primitives__operations__sleep
                0x00203380                system__task_primitives__operations__delay_until
                0x002033b0                system__task_primitives__operations__monotonic_clock
                0x002033c0                system__task_primitives__operations__wakeup
                0x002033d4                system__task_primitives__operations__set_priority
                0x002033e8                system__task_primitives__operations__get_priority
                0x002033fc                system__task_primitives__operations__get_affinity
                0x00203410                system__task_primitives__operations__get_cpu
                0x00203424                system__task_primitives__operations__get_thread_id
                0x0020342c                system__task_primitives__operations__enter_task
                0x00203458                system__task_primitives__operations__initialize_tcb
                0x00203460                system__task_primitives__operations__create_task
                0x002034a0                system__task_primitives__operations__initialize
                0x002034c8                system__task_primitives__operations__initialize_slave
                0x002034ec                system__task_primitives__operations__is_task_context
 .text          0x00203508        0x4 ./s-unstyp.o
                0x00203508                system__unsigned_types__packed_bytes1IP
 .text          0x0020350c      0x7a4 ./a-reatim.o
                0x0020350c                ada__real_time__Omultiply
                0x00203618                ada__real_time__Omultiply__2
                0x0020362c                ada__real_time__Oadd
                0x00203690                ada__real_time__Oadd__2
                0x002036f4                ada__real_time__Oadd__3
                0x0020374c                ada__real_time__Osubtract
                0x002037b4                ada__real_time__Osubtract__2
                0x00203830                ada__real_time__Osubtract__3
                0x00203890                ada__real_time__Osubtract__4
                0x002038c8                ada__real_time__Odivide
                0x00203948                ada__real_time__Odivide__2
                0x00203998                ada__real_time__clock
                0x002039a8                ada__real_time__microseconds
                0x002039e4                ada__real_time__milliseconds
                0x00203a1c                ada__real_time__minutes
                0x00203a4c                ada__real_time__nanoseconds
                0x00203a88                ada__real_time__seconds
                0x00203ab4                ada__real_time__split
                0x00203afc                ada__real_time__time_of
                0x00203b24                ada__real_time__to_duration
                0x00203c20                ada__real_time__to_time_span
                0x00203c64                ada__real_time___elabb
                0x00203c74                ada__real_time___elabs
 .text          0x00203cb0       0x40 ./a-retide.o
                0x00203cb0                ada__real_time__delays__delay_until
                0x00203ce4                ada__real_time__delays__to_duration
 .text          0x00203cf0      0x2d0 ./s-taskin.o
                0x00203cf0                system__tasking__E5sIP
                0x00203cfc                system__tasking__activation_chainIP
                0x00203d08                system__tasking__Tenvironment_tableBIP
                0x00203d0c                __gnat_get_secondary_stack
                0x00203d20                system__tasking__initialize_atcb
                0x00203d8c                system__tasking__initialize
                0x00203f00                __gnat_initialize_slave
                0x00203fa8                system__tasking__self
                0x00203fb8                system__tasking__storage_size
 .text          0x00203fc0       0x8c ./s-secsta.o
                0x00203fc0                system__secondary_stack__memoryIP
                0x00203fc4                system__secondary_stack__ss_allocate
                0x0020400c                system__secondary_stack__ss_init
                0x00204020                system__secondary_stack__ss_mark
                0x00204034                system__secondary_stack__ss_release
 .text          0x0020404c       0xf8 ./s-taprob.o
                0x0020404c                system__tasking__protected_objects__entry_bodyIP
                0x0020405c                system__tasking__protected_objects__protectionIP
                0x00204070                system__tasking__protected_objects__initialize_protection
                0x00204098                system__tasking__protected_objects__lock
                0x00204104                system__tasking__protected_objects__unlock
                0x00204134                system__tasking__protected_objects___elabb
 .text          0x00204144      0x14c ./s-tpobmu.o
                0x00204144                system__tasking__protected_objects__multiprocessors__wakeup_served_entry
                0x002041ac                system__tasking__protected_objects__multiprocessors__entry_call_listIP
                0x002041c0                system__tasking__protected_objects__multiprocessors__served
                0x00204260                system__tasking__protected_objects__multiprocessors___elabb
 .text          0x00204290      0x1ec ./s-tposen.o
                0x00204290                system__tasking__protected_objects__single_entry__complete_single_entry_body
                0x00204294                system__tasking__protected_objects__single_entry__initialize_protection_entry
                0x002042c8                system__tasking__protected_objects__single_entry__lock_entry
                0x002042dc                system__tasking__protected_objects__single_entry__protected_count_entry
                0x002042ec                system__tasking__protected_objects__single_entry__protected_single_entry_call
                0x002043d0                system__tasking__protected_objects__single_entry__protected_single_entry_caller
                0x002043dc                system__tasking__protected_objects__single_entry__service_entry
                0x00204468                system__tasking__protected_objects__single_entry__unlock_entry
 .text          0x0020447c      0x144 ./s-interr.o
                0x0020447c                system__interrupts__default_handler
                0x002044ac                system__interrupts__E3sIP
                0x002044b8                system__interrupts__handler_itemIP
                0x002044c8                system__interrupts__handler_arrayIP
                0x00204508                system__interrupts__install_handler
                0x00204548                system__interrupts__install_restricted_handlers
 .text          0x002045c0       0xb0 ./a-interr.o
                0x002045c0                ada__interrupts__E3sIP
                0x002045cc                ada__interrupts__attach_handler
                0x002045e8                ada__interrupts__current_handler
                0x002045fc                ada__interrupts__detach_handler
                0x00204610                ada__interrupts__exchange_handler
                0x00204634                ada__interrupts__is_attached
                0x00204648                ada__interrupts__is_reserved
                0x0020465c                ada__interrupts__reference
 .text          0x00204670        0x0 ./s-tasres.o
 .text          0x00204670      0x248 ./s-tarest.o
                0x00204720                system__tasking__restricted__stages__activate_restricted_tasks
                0x002047b4                system__tasking__restricted__stages__complete_restricted_activation
                0x002047b8                system__tasking__restricted__stages__complete_restricted_task
                0x002047d0                system__tasking__restricted__stages__create_restricted_task
                0x0020487c                system__tasking__restricted__stages__finalize_global_tasks
                0x00204894                system__tasking__restricted__stages__restricted_terminated
                0x002048a8                system__tasking__restricted__stages___elabb
 .text          0x002048b8       0x6c ./memory_compare.o
                0x002048b8                memcmp
 .text          0x00204924       0xe8 ./memory_copy.o
                0x00204924                memcpy
                0x00204974                memmove
 .text          0x00204a0c       0x4c ./memory_set.o
                0x00204a0c                memset
 .text          0x00204a58        0x0 ./nxt.o
 .text          0x00204a58        0x0 ./nxt-registers.o
 .text          0x00204a58      0xa7c ./nxt-audio.o
                0x00204fbc                nxt__audio__waveformIP
                0x00204fc0                nxt__audio__Tsample_bufferBIP
                0x00204fc4                nxt__audio__Tdouble_bufferBIP
                0x00204fc8                nxt__audio__TamplificationBIP
                0x00204fcc                nxt__audio__generatorTVIP
                0x00205030                nxt__audio__Tsound_sampleBIP
                0x00205034                nxt__audio__play_tone
                0x002052a0                nxt__audio__play_sample
                0x0020535c                nxt__audio__time_remaining
                0x00205420                nxt__audio__mute
                0x00205430                nxt__audio__unmute
                0x00205440                nxt__audio___elabb
 .text          0x002054d4        0x0 ./nxt-bc4-messages.o
 .text          0x002054d4      0x5bc ./nxt-bc4.o
                0x002054f8                nxt__bc4__TbufferBIP
                0x002054fc                nxt__bc4__Tdouble_bufferBIP
                0x00205500                nxt__bc4__initialize_device
                0x00205698                nxt__bc4__send
                0x002056b0                nxt__bc4__receive
                0x00205994                nxt__bc4__reset_device
                0x00205a44                nxt__bc4__enter_command_mode
                0x00205a54                nxt__bc4__enter_data_mode
                0x00205a64                nxt__bc4__current_mode
                0x00205a70                nxt__bc4___elabb
 .text          0x00205a90      0x940 ./nxt-bluetooth.o
                0x00205a90                nxt__bluetooth__Tbt_addressBIP
                0x00205a94                nxt__bluetooth__Tfriendly_nameBIP
                0x00205a98                nxt__bluetooth__Tclass_serviceBIP
                0x00205a9c                nxt__bluetooth__Tpin_codeBIP
                0x00205aa0                nxt__bluetooth__deviceIP
                0x00205aa4                nxt__bluetooth__device_listIP
                0x00205aa8                nxt__bluetooth__initialize
                0x00205abc                nxt__bluetooth__convert_to_friendly_name
                0x00205c1c                nxt__bluetooth__convert_to_device
                0x00205c60                nxt__bluetooth__convert_to_packet
                0x00205ca4                nxt__bluetooth__start_data
                0x00205d00                nxt__bluetooth__pause
                0x00205d30                nxt__bluetooth__connect
                0x00205dd0                nxt__bluetooth__accept_connection
                0x00205f00                nxt__bluetooth__add_known_device
                0x00205fa8                nxt__bluetooth__set_discoverable
                0x00206008                nxt__bluetooth__find_discoverable_devices
                0x0020621c                nxt__bluetooth__get_known_peers
                0x00206364                nxt__bluetooth__set_friendly_name
 .text          0x002063d0        0x0 ./nxt-buffers.o
 .text          0x002063d0      0x268 ./nxt-bc4-io.o
                0x002063d0                nxt__bc4__io__packetIP
                0x002063d4                nxt__bc4__io__send_packet
                0x00206548                nxt__bc4__io__receive_packet
 .text          0x00206638        0x0 ./nxt-filtering.o
 .text          0x00206638       0xa4 ./nxt-last_chance.o
                0x00206638                __gnat_last_chance_handler
 .text          0x002066dc        0x0 ./nxt-fonts.o
 .text          0x002066dc      0x158 ./nxt-motor_encoders.o
                0x00206774                nxt__motor_encoders__TcountersBIP
                0x00206778                nxt__motor_encoders__Tpin_arrayBIP
                0x0020677c                nxt__motor_encoders__pioTVIP
                0x002067cc                nxt__motor_encoders___elabb
 .text          0x00206834        0x0 ./nxt-priorities.o
 .text          0x00206834      0x1fc ./nxt-spi.o
                0x002068a8                nxt__spi__spiTVIP
                0x002068fc                nxt__spi__send
                0x00206978                nxt__spi___elabb
 .text          0x00206a30      0x134 ./nxt-lcd.o
                0x00206a30                nxt__lcd__lcd_lineIP
                0x00206a34                nxt__lcd__command
                0x00206a54                nxt__lcd__set_all_pixels_on
                0x00206a64                nxt__lcd__set_inverse_display
                0x00206a74                nxt__lcd__write
                0x00206af8                nxt__lcd__power_on
 .text          0x00206b64      0x648 ./nxt-display.o
                0x00206b64                nxt__display__TscreenBIP
                0x00206b68                nxt__display__screen_update
                0x00206c78                nxt__display__clear_screen_noupdate
                0x00206cc8                nxt__display__clear_screen
                0x00206cd8                nxt__display__set_pos
                0x00206cec                nxt__display__newline_noupdate
                0x00206d88                nxt__display__put_noupdate
                0x00206e34                nxt__display__put
                0x00206e44                nxt__display__put_noupdate__2
                0x00206e88                nxt__display__put__2
                0x00206e98                nxt__display__put_line
                0x00206eac                nxt__display__newline
                0x00206ebc                nxt__display__put_hex
                0x00206ef8                nxt__display__put_hex__2
                0x00206f34                nxt__display__put_hex__3
                0x00206f64                nxt__display__put_noupdate__3
                0x00207038                nxt__display__put_noupdate__4
                0x00207160                put_exception
                0x0020719c                nxt__display___elabb
 .text          0x002071ac      0x328 ./nxt-twi.o
                0x0020739c                nxt__twi__twiTVIP
                0x002073f4                nxt__twi__send
                0x00207420                nxt__twi__recv
                0x0020744c                nxt__twi___elabb
 .text          0x002074d4      0x37c ./nxt-avr_io.o
                0x002074d4                nxt__avr_io__Tpwm_output_valuesBIP
                0x002074d8                nxt__avr_io__Tmotor_braking_modesBIP
                0x002074dc                nxt__avr_io__Tport_bitsBIP
                0x002074e0                nxt__avr_io__sensor_power_controlIP
                0x002074e4                nxt__avr_io__outgoing_avr_messageIP
                0x002074e8                nxt__avr_io__Traw_adc_inputsBIP
                0x002074ec                nxt__avr_io__incoming_avr_messageIP
                0x002074f0                nxt__avr_io__Toutgoing_message_as_bytesBIP
                0x002074f4                nxt__avr_io__Tincoming_message_as_bytesBIP
                0x002074f8                nxt__avr_io__send_initialization
                0x0020751c                nxt__avr_io__send_to_avr
                0x0020757c                nxt__avr_io__receive_from_avr
                0x002075ec                nxt__avr_io__power_down_message
                0x002075f8                nxt__avr_io__set_sensor_power_message
                0x00207734                nxt__avr_io__set_motor_message
                0x002077e8                nxt__avr_io__raw_inputs
                0x00207804                nxt__avr_io__decoded_button
                0x00207848                nxt__avr_io__battery_reading
 .text          0x00207850      0x63c ./nxt-avr.o
                0x00207850                nxt__avr__outgoing_messages__insertXn
                0x00207904                nxt__avr__outgoing_messages__removeXn
                0x002079c8                nxt__avr__outgoing_messages__emptyXn
                0x002079ec                nxt__avr__outgoing_messages__fullXn
                0x00207a14                nxt__avr__outgoing_messages__clearXn
                0x00207a48                nxt__avr__outgoing_messages__extentXn
                0x00207a64                nxt__avr__button_inputs__filteredXn
                0x00207ab8                nxt__avr__outgoing_messages__contentIPXn
                0x00207abc                nxt__avr__outgoing_messages__bufferIPXn
                0x00207af0                nxt__avr__button_inputs__filterIPXn
                0x00207b08                nxt__avr__pumpTKVIP
                0x00207b94                nxt__avr__power_down
                0x00207cf4                nxt__avr__set_power
                0x00207d30                nxt__avr__set_input_power
                0x00207d64                nxt__avr__await_data_available
                0x00207dd8                nxt__avr___elabb
 .text          0x00207e8c       0x5c ./nxt-battery.o
                0x00207e8c                nxt__battery__millivolts
                0x00207eb4                nxt__battery__volts
                0x00207ed4                nxt__battery__rechargeable
 .text          0x00207ee8      0x288 ./menus.o
                0x00207ee8                menus__menu_entryIP
                0x00207efc                menus__menuIP
                0x00207f40                menus__wait_ms
                0x00207f70                menus__pressed_key
                0x00207fb0                menus__play_menu
                0x00208120                menus__wait_key
 .text          0x00208170      0x1f8 ./menu_tests.o
                0x00208348                menu_tests__do_menu_tests
 .text          0x00208368      0x104 ./menu_sounds.o
                0x00208368                menu_sounds__do_menu_sounds
 .text          0x0020846c      0x34c ./menu_motors.o
                0x00208794                menu_motors__Tspeed_arrayBIP
                0x00208798                menu_motors__do_menu_motors
 .text          0x002087b8     0x11b8 ./menu_bt.o
                0x0020991c                menu_bt__do_menu_bt
 .text          0x00209970      0x114 ./tests.o
                0x00209970                _ada_tests
 .text          0x00209a84      0x114 /home/lego/Documents/gnatmindstorms2011/bin/../lib/gcc/arm-eabi/4.5.3/libgcc.a(_udivsi3.o)
                0x00209a84                __udivsi3
                0x00209a84                __aeabi_uidiv
                0x00209b78                __aeabi_uidivmod
 .text          0x00209b98      0x148 /home/lego/Documents/gnatmindstorms2011/bin/../lib/gcc/arm-eabi/4.5.3/libgcc.a(_divsi3.o)
                0x00209b98                __aeabi_idiv
                0x00209b98                __divsi3
                0x00209cc0                __aeabi_idivmod
 .text          0x00209ce0        0x4 /home/lego/Documents/gnatmindstorms2011/bin/../lib/gcc/arm-eabi/4.5.3/libgcc.a(_dvmd_tls.o)
                0x00209ce0                __aeabi_ldiv0
                0x00209ce0                __aeabi_idiv0
 .text          0x00209ce4      0x2ac /home/lego/Documents/gnatmindstorms2011/bin/../lib/gcc/arm-eabi/4.5.3/libgcc.a(_arm_addsubsf3.o)
                0x00209ce4                __aeabi_frsub
                0x00209cec                __subsf3
                0x00209cec                __aeabi_fsub
                0x00209cf0                __aeabi_fadd
                0x00209cf0                __addsf3
                0x00209eac                __aeabi_ui2f
                0x00209eac                __floatunsisf
                0x00209eb4                __aeabi_i2f
                0x00209eb4                __floatsisf
                0x00209ed4                __floatundisf
                0x00209ed4                __aeabi_ul2f
                0x00209ee4                __floatdisf
                0x00209ee4                __aeabi_l2f
 .text          0x00209f90      0x2f8 /home/lego/Documents/gnatmindstorms2011/bin/../lib/gcc/arm-eabi/4.5.3/libgcc.a(_arm_muldivsf3.o)
                0x00209f90                __mulsf3
                0x00209f90                __aeabi_fmul
                0x0020a128                __divsf3
                0x0020a128                __aeabi_fdiv
 .text          0x0020a288       0x44 /home/lego/Documents/gnatmindstorms2011/bin/../lib/gcc/arm-eabi/4.5.3/libgcc.a(_aeabi_ldivmod.o)
                0x0020a288                __aeabi_ldivmod
 .text          0x0020a2cc       0x3c /home/lego/Documents/gnatmindstorms2011/bin/../lib/gcc/arm-eabi/4.5.3/libgcc.a(_aeabi_uldivmod.o)
                0x0020a2cc                __aeabi_uldivmod
 .text          0x0020a308       0x80 /home/lego/Documents/gnatmindstorms2011/bin/../lib/gcc/arm-eabi/4.5.3/libgcc.a(bpabi.o)
                0x0020a308                __gnu_ldivmod_helper
                0x0020a348                __gnu_uldivmod_helper
 .text          0x0020a388      0x4b8 /home/lego/Documents/gnatmindstorms2011/bin/../lib/gcc/arm-eabi/4.5.3/libgcc.a(_divdi3.o)
                0x0020a388                __divdi3
 .text          0x0020a840      0x44c /home/lego/Documents/gnatmindstorms2011/bin/../lib/gcc/arm-eabi/4.5.3/libgcc.a(_udivdi3.o)
                0x0020a840                __udivdi3
 .text          0x0020ac8c       0x48 /home/lego/Documents/gnatmindstorms2011/bin/../lib/gcc/arm-eabi/4.5.3/libgcc.a(_clzsi2.o)
                0x0020ac8c                __clzsi2
                0x0020ace0                . = ALIGN (0x10)
 *fill*         0x0020acd4        0xc 00
 *(*.rodata *.rodata.*)
 .rodata        0x0020ace0      0x208 b~tests.o
                0x0020ace0                __gnat_ada_main_program_name
                0x0020acec                __gnat_version
                0x0020ad10                testsB
                0x0020ad14                adaS
                0x0020ad18                ada__real_timeB
                0x0020ad1c                ada__real_timeS
                0x0020ad20                systemS
                0x0020ad24                system__task_primitivesS
                0x0020ad28                system__os_interfaceS
                0x0020ad2c                system__bbS
                0x0020ad30                system__bb__cpu_primitivesB
                0x0020ad34                system__bb__cpu_primitivesS
                0x0020ad38                interfacesS
                0x0020ad3c                system__bb__interruptsB
                0x0020ad40                system__bb__interruptsS
                0x0020ad44                system__bb__peripheralsB
                0x0020ad48                system__bb__peripheralsS
                0x0020ad4c                system__bb__peripherals__registersS
                0x0020ad50                system__bb__timeB
                0x0020ad54                system__bb__timeS
                0x0020ad58                system__bb__protectionB
                0x0020ad5c                system__bb__protectionS
                0x0020ad60                system__bb__parametersS
                0x0020ad64                system__parametersB
                0x0020ad68                system__parametersS
                0x0020ad6c                system__storage_elementsB
                0x0020ad70                system__storage_elementsS
                0x0020ad74                system__bb__threadsB
                0x0020ad78                system__bb__threadsS
                0x0020ad7c                system__bb__cpu_primitives__multiprocessorsB
                0x0020ad80                system__bb__cpu_primitives__multiprocessorsS
                0x0020ad84                system__multiprocessorsB
                0x0020ad88                system__multiprocessorsS
                0x0020ad8c                system__bb__threads__queuesB
                0x0020ad90                system__bb__threads__queuesS
                0x0020ad94                system__machine_codeS
                0x0020ad98                system__task_primitives__operationsB
                0x0020ad9c                system__task_primitives__operationsS
                0x0020ada0                system__taskingB
                0x0020ada4                system__taskingS
                0x0020ada8                ada__exceptionsB
                0x0020adac                ada__exceptionsS
                0x0020adb0                system__secondary_stackB
                0x0020adb4                system__secondary_stackS
                0x0020adb8                system__task_infoB
                0x0020adbc                system__task_infoS
                0x0020adc0                system__tasking__debugB
                0x0020adc4                system__tasking__debugS
                0x0020adc8                ada__real_time__delaysB
                0x0020adcc                ada__real_time__delaysS
                0x0020add0                menu_testsB
                0x0020add4                menu_testsS
                0x0020add8                menu_btB
                0x0020addc                menu_btS
                0x0020ade0                menusB
                0x0020ade4                menusS
                0x0020ade8                nxtS
                0x0020adec                nxt__avrB
                0x0020adf0                nxt__avrS
                0x0020adf4                memory_compareB
                0x0020adf8                memory_compareS
                0x0020adfc                interfaces__cS
                0x0020ae00                nxt__avr_ioB
                0x0020ae04                nxt__avr_ioS
                0x0020ae08                memory_setB
                0x0020ae0c                memory_setS
                0x0020ae10                nxt__twiB
                0x0020ae14                nxt__twiS
                0x0020ae18                ada__interruptsB
                0x0020ae1c                ada__interruptsS
                0x0020ae20                system__interruptsB
                0x0020ae24                system__interruptsS
                0x0020ae28                system__tasking__protected_objectsB
                0x0020ae2c                system__tasking__protected_objectsS
                0x0020ae30                system__multiprocessors__fair_locksB
                0x0020ae34                system__multiprocessors__fair_locksS
                0x0020ae38                system__multiprocessors__spin_locksB
                0x0020ae3c                system__multiprocessors__spin_locksS
                0x0020ae40                system__tasking__protected_objects__single_entryB
                0x0020ae44                system__tasking__protected_objects__single_entryS
                0x0020ae48                system__tasking__protected_objects__multiprocessorsB
                0x0020ae4c                system__tasking__protected_objects__multiprocessorsS
                0x0020ae50                nxt__displayB
                0x0020ae54                nxt__displayS
                0x0020ae58                memory_copyB
                0x0020ae5c                memory_copyS
                0x0020ae60                nxt__fontsS
                0x0020ae64                nxt__lcdB
                0x0020ae68                nxt__lcdS
                0x0020ae6c                nxt__spiB
                0x0020ae70                nxt__spiS
                0x0020ae74                nxt__registersS
                0x0020ae78                system__unsigned_typesS
                0x0020ae7c                nxt__buffersB
                0x0020ae80                nxt__buffersS
                0x0020ae84                nxt__filteringB
                0x0020ae88                nxt__filteringS
                0x0020ae8c                nxt__prioritiesS
                0x0020ae90                system__tasking__restricted__stagesB
                0x0020ae94                system__tasking__restricted__stagesS
                0x0020ae98                system__tasking__restrictedS
                0x0020ae9c                nxt__bc4B
                0x0020aea0                nxt__bc4S
                0x0020aea4                nxt__bc4__messagesS
                0x0020aea8                nxt__bc4__ioB
                0x0020aeac                nxt__bc4__ioS
                0x0020aeb0                nxt__bluetoothB
                0x0020aeb4                nxt__bluetoothS
                0x0020aeb8                menu_motorsB
                0x0020aebc                menu_motorsS
                0x0020aec0                nxt__motor_encodersB
                0x0020aec4                nxt__motor_encodersS
                0x0020aec8                menu_soundsB
                0x0020aecc                menu_soundsS
                0x0020aed0                nxt__audioB
                0x0020aed4                nxt__audioS
                0x0020aed8                nxt__batteryB
                0x0020aedc                nxt__batteryS
                0x0020aee0                nxt__last_chanceB
                0x0020aee4                nxt__last_chanceS
 .rodata        0x0020aee8        0x8 ./i-c.o
                0x0020aee8                interfaces__c__nul
                0x0020aeec                interfaces__c__wide_nul
 .rodata        0x0020aef0       0x30 ./system.o
                0x0020aef0                system__system_name
                0x0020aef1                system__default_bit_order
                0x0020aef4                system__max_priority
                0x0020aef8                system__max_interrupt_priority
                0x0020aefc                system__default_priority
                0x0020af00                system__null_address
                0x0020af04                system__backend_divide_checks
                0x0020af05                system__backend_overflow_checks
                0x0020af06                system__command_line_args
                0x0020af07                system__configurable_run_time
                0x0020af08                system__denorm
                0x0020af09                system__duration_32_bits
                0x0020af0a                system__exit_status_supported
                0x0020af0b                system__fractional_fixed_ops
                0x0020af0c                system__frontend_layout
                0x0020af0d                system__machine_overflows
                0x0020af0e                system__machine_rounds
                0x0020af0f                system__preallocated_stacks
                0x0020af10                system__signed_zeros
                0x0020af11                system__stack_check_default
                0x0020af12                system__stack_check_probes
                0x0020af13                system__stack_check_limits
                0x0020af14                system__support_64_bit_divides
                0x0020af15                system__support_aggregates
                0x0020af16                system__support_composite_assign
                0x0020af17                system__support_composite_compare
                0x0020af18                system__support_long_shifts
                0x0020af19                system__always_compatible_rep
                0x0020af1a                system__suppress_standard_library
                0x0020af1b                system__use_ada_main_program_name
                0x0020af1c                system__zcx_by_default
                0x0020af1d                system__gcc_zcx_support
 .rodata        0x0020af20        0x4 ./a-except.o
                0x0020af20                ada__exceptions__null_id
 .rodata        0x0020af24        0x8 ./s-maccod.o
                0x0020af24                system__machine_code__no_input_operands
                0x0020af28                system__machine_code__no_output_operands
 .rodata        0x0020af2c       0x30 ./s-parame.o
                0x0020af2c                system__parameters__unspecified_size
                0x0020af30                system__parameters__dynamic
                0x0020af34                system__parameters__sec_stack_ratio
                0x0020af38                system__parameters__sec_stack_dynamic
                0x0020af3c                system__parameters__default_stack_size
                0x0020af40                system__parameters__minimum_stack_size
                0x0020af44                system__parameters__stack_grows_down
                0x0020af48                system__parameters__c_malloc_linkname
                0x0020af58                system__parameters__garbage_collected
                0x0020af59                system__parameters__single_lock
                0x0020af5a                system__parameters__no_abort
                0x0020af5b                system__parameters__runtime_traces
 .rodata        0x0020af5c        0xd ./s-stoele.o
 *fill*         0x0020af69        0x3 00
 .rodata        0x0020af6c        0xc ./s-bbpara.o
                0x0020af6c                system__bb__parameters__clock_frequency
                0x0020af70                system__bb__parameters__interrupt_levels
                0x0020af74                system__bb__parameters__multiprocessor
 .rodata        0x0020af78        0x1 ./s-multip.o
                0x0020af78                system__multiprocessors__not_a_specific_cpu
 *fill*         0x0020af79        0x3 00
 .rodata        0x0020af7c        0x4 ./s-bbthre.o
                0x0020af7c                system__bb__threads__null_thread_id
 .rodata        0x0020af80        0xc ./s-bbinte.o
                0x0020af88                system__bb__interrupts__no_interrupt
 .rodata        0x0020af8c        0x8 ./s-bbtime.o
                0x0020af8c                system__bb__time__tick
                0x0020af90                system__bb__time__ticks_per_second
 .rodata        0x0020af94       0x14 ./s-bbcppr.o
                0x0020af94                system__bb__cpu_primitives__flag_f
                0x0020af98                system__bb__cpu_primitives__flag_i
                0x0020af9c                system__bb__cpu_primitives__sp
                0x0020afa0                system__bb__cpu_primitives__lr
                0x0020afa4                system__bb__cpu_primitives__arg
 .rodata        0x0020afa8        0xc ./s-osinte.o
                0x0020afa8                system__os_interface__no_interrupt
                0x0020afac                system__os_interface__null_thread_id
                0x0020afb0                system__os_interface__lwp_self
 .rodata        0x0020afb4        0x1 ./s-mufalo.o
                0x0020afb4                system__multiprocessors__fair_locks__multiprocessor
 .rodata        0x0020afb5        0x1 ./s-tasinf.o
                0x0020afb5                system__task_info__unspecified_task_info
 *fill*         0x0020afb6        0x2 00
 .rodata        0x0020afb8       0x40 ./a-reatim.o
                0x0020afc8                ada__real_time__time_first
                0x0020afcc                ada__real_time__time_last
                0x0020afd0                ada__real_time__time_span_first
                0x0020afd8                ada__real_time__time_span_last
                0x0020afe0                ada__real_time__time_span_zero
                0x0020afe8                ada__real_time__time_span_unit
                0x0020aff0                ada__real_time__tick
 .rodata        0x0020aff8        0xd ./a-retide.o
 *fill*         0x0020b005        0x3 00
 .rodata        0x0020b008       0x24 ./s-taskin.o
                0x0020b020                system__tasking__null_task
                0x0020b024                system__tasking__library_task_level
                0x0020b028                system__tasking__unspecified_priority
 .rodata        0x0020b02c        0xd ./s-secsta.o
 *fill*         0x0020b039        0x3 00
 .rodata        0x0020b03c       0x14 ./s-taprob.o
                0x0020b04c                system__tasking__protected_objects__null_po
 .rodata        0x0020b050        0xe ./s-tposen.o
                0x0020b05d                system__tasking__protected_objects__single_entry__multiprocessor
 *fill*         0x0020b05e        0x2 00
 .rodata        0x0020b060        0x4 ./s-interr.o
                0x0020b060                system__interrupts__default_interrupt_priority
 .rodata        0x0020b064        0xd ./a-interr.o
 *fill*         0x0020b071        0x3 00
 .rodata        0x0020b074       0x28 ./s-tarest.o
 .rodata        0x0020b09c       0x13 ./memory_compare.o
 .rodata        0x0020b0af       0x10 ./memory_copy.o
 .rodata        0x0020b0bf        0xf ./memory_set.o
 *fill*         0x0020b0ce        0x2 00
 .rodata        0x0020b0d0       0xe4 ./nxt-audio.o
 .rodata        0x0020b1b4       0x3d ./nxt-bc4-messages.o
                0x0020b1b4                nxt__bc4__messages__msg_begin_inquiry
                0x0020b1b5                nxt__bc4__messages__msg_cancel_inquiry
                0x0020b1b6                nxt__bc4__messages__msg_connect
                0x0020b1b7                nxt__bc4__messages__msg_open_port
                0x0020b1b8                nxt__bc4__messages__msg_lookup_name
                0x0020b1b9                nxt__bc4__messages__msg_add_device
                0x0020b1ba                nxt__bc4__messages__msg_remove_device
                0x0020b1bb                nxt__bc4__messages__msg_dump_list
                0x0020b1bc                nxt__bc4__messages__msg_close_connection
                0x0020b1bd                nxt__bc4__messages__msg_accept_connection
                0x0020b1be                nxt__bc4__messages__msg_pin_code
                0x0020b1bf                nxt__bc4__messages__msg_open_stream
                0x0020b1c0                nxt__bc4__messages__msg_start_heart
                0x0020b1c1                nxt__bc4__messages__msg_heartbeat
                0x0020b1c2                nxt__bc4__messages__msg_inquiry_running
                0x0020b1c3                nxt__bc4__messages__msg_inquiry_result
                0x0020b1c4                nxt__bc4__messages__msg_inquiry_stopped
                0x0020b1c5                nxt__bc4__messages__msg_lookup_name_result
                0x0020b1c6                nxt__bc4__messages__msg_lookup_name_failure
                0x0020b1c7                nxt__bc4__messages__msg_connect_result
                0x0020b1c8                nxt__bc4__messages__msg_reset_indication
                0x0020b1c9                nxt__bc4__messages__msg_request_pin_code
                0x0020b1ca                nxt__bc4__messages__msg_request_connection
                0x0020b1cb                nxt__bc4__messages__msg_list_result
                0x0020b1cc                nxt__bc4__messages__msg_list_item
                0x0020b1cd                nxt__bc4__messages__msg_list_dump_stopped
                0x0020b1ce                nxt__bc4__messages__msg_close_connection_result
                0x0020b1cf                nxt__bc4__messages__msg_port_open_result
                0x0020b1d0                nxt__bc4__messages__msg_set_discoverable
                0x0020b1d1                nxt__bc4__messages__msg_close_port
                0x0020b1d2                nxt__bc4__messages__msg_close_port_result
                0x0020b1d3                nxt__bc4__messages__msg_pin_code_ack
                0x0020b1d4                nxt__bc4__messages__msg_discoverable_ack
                0x0020b1d5                nxt__bc4__messages__msg_set_friendly_name
                0x0020b1d6                nxt__bc4__messages__msg_set_friendly_name_ack
                0x0020b1d7                nxt__bc4__messages__msg_get_link_quality
                0x0020b1d8                nxt__bc4__messages__msg_link_quality_result
                0x0020b1d9                nxt__bc4__messages__msg_set_factory_settings
                0x0020b1da                nxt__bc4__messages__msg_set_factory_settings_ack
                0x0020b1db                nxt__bc4__messages__msg_get_local_addr
                0x0020b1dc                nxt__bc4__messages__msg_get_local_addr_result
                0x0020b1dd                nxt__bc4__messages__msg_get_friendly_name
                0x0020b1de                nxt__bc4__messages__msg_get_discoverable
                0x0020b1df                nxt__bc4__messages__msg_get_port_open
                0x0020b1e0                nxt__bc4__messages__msg_get_friendly_name_result
                0x0020b1e1                nxt__bc4__messages__msg_get_discoverable_result
                0x0020b1e2                nxt__bc4__messages__msg_get_port_open_result
                0x0020b1e3                nxt__bc4__messages__msg_get_version
                0x0020b1e4                nxt__bc4__messages__msg_get_version_result
                0x0020b1e5                nxt__bc4__messages__msg_get_brick_statusbyte_result
                0x0020b1e6                nxt__bc4__messages__msg_set_brick_statusbyte_result
                0x0020b1e7                nxt__bc4__messages__msg_get_brick_statusbyte
                0x0020b1e8                nxt__bc4__messages__msg_set_brick_statusbyte
                0x0020b1e9                nxt__bc4__messages__msg_get_operating_mode
                0x0020b1ea                nxt__bc4__messages__msg_set_operating_mode
                0x0020b1eb                nxt__bc4__messages__msg_set_operating_mode_result
                0x0020b1ec                nxt__bc4__messages__msg_get_connection_status
                0x0020b1ed                nxt__bc4__messages__msg_connection_status_result
                0x0020b1ee                nxt__bc4__messages__msg_goto_dfumode
                0x0020b1ef                nxt__bc4__messages__stream_breaking_mode
                0x0020b1f0                nxt__bc4__messages__dont_break_stream_mode
 .rodata        0x0020b1f1        0xc ./nxt-bc4.o
 *fill*         0x0020b1fd        0x3 00
 .rodata        0x0020b200       0x5c ./nxt-bluetooth.o
 .rodata        0x0020b25c        0xf ./nxt-bc4-io.o
 *fill*         0x0020b26b        0x1 00
 .rodata        0x0020b26c       0x38 ./nxt-last_chance.o
 .rodata        0x0020b2a4      0x1dc ./nxt-fonts.o
                0x0020b2a4                nxt__fonts__font5x8
 .rodata        0x0020b480       0x20 ./nxt-motor_encoders.o
 .rodata        0x0020b4a0        0x4 ./nxt-priorities.o
                0x0020b4a0                nxt__priorities__avr_io_pump_priority
 .rodata        0x0020b4a4        0x8 ./nxt-spi.o
 .rodata        0x0020b4ac       0x34 ./nxt-display.o
 .rodata        0x0020b4e0       0x14 ./nxt-twi.o
 .rodata        0x0020b4f4       0x50 ./nxt-avr_io.o
                0x0020b4f4                nxt__avr_io__avr_string
                0x0020b534                nxt__avr_io__null_outgoing_msg
                0x0020b540                nxt__avr_io__avr_address
 .rodata        0x0020b544       0x1c ./nxt-avr.o
                0x0020b55c                nxt__avr__button_inputs__no_valueXn
 .rodata        0x0020b560       0x20 ./menus.o
 .rodata        0x0020b580      0x118 ./menu_tests.o
 .rodata        0x0020b698       0x44 ./menu_sounds.o
 *fill*         0x0020b6dc        0x4 00
 .rodata        0x0020b6e0      0x138 ./menu_motors.o
 .rodata        0x0020b818      0x400 ./menu_bt.o
 .rodata        0x0020bc18       0x7c ./tests.o
                0x0020bca0                . = ALIGN (0x10)
 *fill*         0x0020bc94        0xc 00

.vfp11_veneer   0x00200040        0x0
 .vfp11_veneer  0x00000000        0x0 linker stubs

.v4_bx          0x00200040        0x0
 .v4_bx         0x00000000        0x0 linker stubs

.ARM.extab      0x0020bca0        0x0
 *(.ARM.extab* .gnu.linkonce.armextab.*)
 .ARM.extab     0x0020bca0        0x0 /home/lego/Documents/gnatmindstorms2011/bin/../lib/gcc/arm-eabi/4.5.3/libgcc.a(bpabi.o)
 .ARM.extab     0x0020bca0        0x0 /home/lego/Documents/gnatmindstorms2011/bin/../lib/gcc/arm-eabi/4.5.3/libgcc.a(_divdi3.o)
 .ARM.extab     0x0020bca0        0x0 /home/lego/Documents/gnatmindstorms2011/bin/../lib/gcc/arm-eabi/4.5.3/libgcc.a(_udivdi3.o)
                0x0020bca0                PROVIDE (__exidx_start, .)

.ARM.exidx      0x0020bca0       0x20
 *(.ARM.exidx* .gnu.linkonce.armexidx.*)
 .ARM.exidx     0x0020bca0        0x8 /home/lego/Documents/gnatmindstorms2011/bin/../lib/gcc/arm-eabi/4.5.3/libgcc.a(bpabi.o)
                                 0x10 (size before relaxing)
 .ARM.exidx     0x0020bca8        0x8 /home/lego/Documents/gnatmindstorms2011/bin/../lib/gcc/arm-eabi/4.5.3/libgcc.a(_divdi3.o)
 .ARM.exidx     0x0020bcb0       0x10 /home/lego/Documents/gnatmindstorms2011/bin/../lib/gcc/arm-eabi/4.5.3/libgcc.a(_udivdi3.o)
                                  0x8 (size before relaxing)
                0x0020bcc0                PROVIDE (__exidx_end, .)

.ram_text       0x0020bcc0        0x0
                0x0020bcc0                . = ALIGN (0x10)
 *.oram(*.text *.text.* *.glue*)
                0x0020bcc0                . = ALIGN (0x10)
 *.oram(*.rodata *.rodata.*)
                0x0020bcc0                . = ALIGN (0x10)
                0x0020bcc0                __ramtext_ram_start__ = ADDR (.ram_text)
                0x0020bcc0                __ramtext_ram_end__ = (ADDR (.ram_text) + SIZEOF (.ram_text))
                0x0020bcc0                __ramtext_load_start__ = LOADADDR (.ram_text)
                0x0020bcc0                __ramtext_load_end__ = (__ramtext_load_start__ + SIZEOF (.ram_text))

.data           0x0020bcc0      0x110
 *(*.data *.data.*)
 .data          0x0020bcc0        0x2 b~tests.o
                0x0020bcc0                ada_main_E
 .data          0x0020bcc2        0x0 vectors.o
 .data          0x0020bcc2        0x0 init.o
 .data          0x0020bcc2        0x0 main.o
 .data          0x0020bcc2        0x0 irq.o
 .data          0x0020bcc2        0x0 context_switch-bb-arm.o
 .data          0x0020bcc2        0x2 ./ada.o
                0x0020bcc2                ada_E
 .data          0x0020bcc4        0x2 ./interfac.o
                0x0020bcc4                interfaces_E
 .data          0x0020bcc6        0x2 ./i-c.o
                0x0020bcc6                interfaces__c_E
 .data          0x0020bcc8        0x2 ./system.o
                0x0020bcc8                system_E
 .data          0x0020bcca        0x2 ./a-except.o
                0x0020bcca                ada__exceptions_E
 .data          0x0020bccc        0x2 ./s-bb.o
                0x0020bccc                system__bb_E
 .data          0x0020bcce        0x2 ./s-maccod.o
                0x0020bcce                system__machine_code_E
 .data          0x0020bcd0        0x2 ./s-parame.o
                0x0020bcd0                system__parameters_E
 .data          0x0020bcd2        0x2 ./s-stoele.o
                0x0020bcd2                system__storage_elements_E
 .data          0x0020bcd4        0x2 ./s-bbpara.o
                0x0020bcd4                system__bb__parameters_E
 .data          0x0020bcd6        0x2 ./s-bbpere.o
                0x0020bcd6                system__bb__peripherals__registers_E
 .data          0x0020bcd8        0x2 ./s-multip.o
                0x0020bcd8                system__multiprocessors_E
 .data          0x0020bcda        0x2 ./s-bcprmu.o
                0x0020bcda                system__bb__cpu_primitives__multiprocessors_E
 .data          0x0020bcdc        0x2 ./s-bbperi.o
                0x0020bcdc                system__bb__peripherals_E
 *fill*         0x0020bcde        0x2 00
 .data          0x0020bce0       0x14 ./s-bbthqu.o
                0x0020bce0                first_thread_table
                0x0020bce4                __gnat_running_thread_table
                0x0020bce8                system__bb__threads__queues__alarms_table
                0x0020bcec                system__bb__threads__queues_E
                0x0020bcf0                system__bb__threads__queues__global_list
 .data          0x0020bcf4        0x4 ./s-bbthre.o
                0x0020bcf4                system__bb__threads__initialized
                0x0020bcf6                system__bb__threads_E
 .data          0x0020bcf8        0x8 ./s-bbinte.o
                0x0020bcf8                system__bb__interrupts__interrupt_being_handled
                0x0020bcfc                system__bb__interrupts_E
 .data          0x0020bd00        0x2 ./s-bbtime.o
                0x0020bd00                system__bb__time_E
 .data          0x0020bd02        0x2 ./s-bbcppr.o
                0x0020bd02                system__bb__cpu_primitives_E
 .data          0x0020bd04        0x8 ./s-bbprot.o
                0x0020bd04                system__bb__protection_E
                0x0020bd08                system__bb__protection__wakeup_served_entry_callback
 .data          0x0020bd0c        0x4 ./s-musplo.o
                0x0020bd0c                system__multiprocessors__spin_locks_E
                0x0020bd0e                system__multiprocessors__spin_locks__unlocked
 .data          0x0020bd10        0x2 ./s-osinte.o
                0x0020bd10                system__os_interface_E
 .data          0x0020bd12        0x2 ./s-mufalo.o
                0x0020bd12                system__multiprocessors__fair_locks_E
 .data          0x0020bd14        0x2 ./s-tasinf.o
                0x0020bd14                system__task_info_E
 .data          0x0020bd16        0x2 ./s-taspri.o
                0x0020bd16                system__task_primitives_E
 .data          0x0020bd18        0xc ./s-tasdeb.o
                0x0020bd18                system__tasking__debug__last_task
                0x0020bd1c                system__tasking__debug__first_task
                0x0020bd20                system__tasking__debug_E
 .data          0x0020bd24        0x2 ./s-taprop.o
                0x0020bd24                system__task_primitives__operations_E
 .data          0x0020bd26        0x2 ./s-unstyp.o
                0x0020bd26                system__unsigned_types_E
 .data          0x0020bd28        0x2 ./a-reatim.o
                0x0020bd28                ada__real_time_E
 .data          0x0020bd2a        0x2 ./a-retide.o
                0x0020bd2a                ada__real_time__delays_E
 .data          0x0020bd2c       0x18 ./s-taskin.o
                0x0020bd30                __gl_main_cpu
                0x0020bd34                __gl_main_priority
                0x0020bd38                system__tasking__fall_back_handler
                0x0020bd40                system__tasking_E
 .data          0x0020bd44        0x2 ./s-secsta.o
                0x0020bd44                system__secondary_stack_E
 .data          0x0020bd46        0x2 ./s-taprob.o
                0x0020bd46                system__tasking__protected_objects_E
 .data          0x0020bd48        0x2 ./s-tpobmu.o
                0x0020bd48                system__tasking__protected_objects__multiprocessors_E
 .data          0x0020bd4a        0x2 ./s-tposen.o
                0x0020bd4a                system__tasking__protected_objects__single_entry_E
 .data          0x0020bd4c        0x2 ./s-interr.o
                0x0020bd4c                system__interrupts_E
 .data          0x0020bd4e        0x2 ./a-interr.o
                0x0020bd4e                ada__interrupts_E
 .data          0x0020bd50        0x2 ./s-tasres.o
                0x0020bd50                system__tasking__restricted_E
 .data          0x0020bd52        0x2 ./s-tarest.o
                0x0020bd52                system__tasking__restricted__stages_E
 .data          0x0020bd54        0x2 ./memory_compare.o
                0x0020bd54                memory_compare_E
 .data          0x0020bd56        0x2 ./memory_copy.o
                0x0020bd56                memory_copy_E
 .data          0x0020bd58        0x2 ./memory_set.o
                0x0020bd58                memory_set_E
 .data          0x0020bd5a        0x2 ./nxt.o
                0x0020bd5a                nxt_E
 .data          0x0020bd5c        0x0 ./nxt-registers.o
 .data          0x0020bd5c        0x2 ./nxt-audio.o
                0x0020bd5c                nxt__audio_E
 .data          0x0020bd5e        0x2 ./nxt-bc4-messages.o
                0x0020bd5e                nxt__bc4__messages_E
 .data          0x0020bd60        0x8 ./nxt-bc4.o
                0x0020bd60                nxt__bc4__buf_ptr
                0x0020bd64                nxt__bc4_E
 .data          0x0020bd68        0x2 ./nxt-bluetooth.o
                0x0020bd68                nxt__bluetooth_E
 .data          0x0020bd6a        0x2 ./nxt-buffers.o
                0x0020bd6a                nxt__buffers_E
 .data          0x0020bd6c        0x2 ./nxt-bc4-io.o
                0x0020bd6c                nxt__bc4__io_E
 .data          0x0020bd6e        0x2 ./nxt-filtering.o
                0x0020bd6e                nxt__filtering_E
 .data          0x0020bd70        0x2 ./nxt-last_chance.o
                0x0020bd70                nxt__last_chance_E
 .data          0x0020bd72        0x2 ./nxt-fonts.o
                0x0020bd72                nxt__fonts_E
 .data          0x0020bd74       0x10 ./nxt-motor_encoders.o
                0x0020bd74                nxt__motor_encoders__encoder_count
                0x0020bd80                nxt__motor_encoders_E
 .data          0x0020bd84        0x2 ./nxt-priorities.o
                0x0020bd84                nxt__priorities_E
 *fill*         0x0020bd86        0x2 00
 .data          0x0020bd88        0xc ./nxt-spi.o
                0x0020bd90                nxt__spi_E
 .data          0x0020bd94        0x2 ./nxt-lcd.o
                0x0020bd94                nxt__lcd_E
 .data          0x0020bd96        0x2 ./nxt-display.o
                0x0020bd96                nxt__display_E
 .data          0x0020bd98        0xc ./nxt-twi.o
                0x0020bda0                nxt__twi_E
 .data          0x0020bda4        0xc ./nxt-avr_io.o
                0x0020bda4                nxt__avr_io__current_power_settings
                0x0020bda8                nxt__avr_io__current_output_modes
                0x0020bdac                nxt__avr_io__current_input_power
                0x0020bdae                nxt__avr_io_E
 .data          0x0020bdb0        0x4 ./nxt-avr.o
                0x0020bdb2                nxt__avr_E
 .data          0x0020bdb4        0x2 ./nxt-battery.o
                0x0020bdb4                nxt__battery_E
 .data          0x0020bdb6        0x2 ./menus.o
                0x0020bdb6                menus_E
 .data          0x0020bdb8        0x2 ./menu_tests.o
                0x0020bdb8                menu_tests_E
 .data          0x0020bdba        0x2 ./menu_sounds.o
                0x0020bdba                menu_sounds_E
 .data          0x0020bdbc        0x8 ./menu_motors.o
                0x0020bdc2                menu_motors_E
 .data          0x0020bdc4        0xc ./menu_bt.o
                0x0020bdcc                menu_bt_E
 .data          0x0020bdd0        0x0 ./tests.o
 .data          0x0020bdd0        0x0 /home/lego/Documents/gnatmindstorms2011/bin/../lib/gcc/arm-eabi/4.5.3/libgcc.a(_udivsi3.o)
 .data          0x0020bdd0        0x0 /home/lego/Documents/gnatmindstorms2011/bin/../lib/gcc/arm-eabi/4.5.3/libgcc.a(_divsi3.o)
 .data          0x0020bdd0        0x0 /home/lego/Documents/gnatmindstorms2011/bin/../lib/gcc/arm-eabi/4.5.3/libgcc.a(_dvmd_tls.o)
 .data          0x0020bdd0        0x0 /home/lego/Documents/gnatmindstorms2011/bin/../lib/gcc/arm-eabi/4.5.3/libgcc.a(_arm_addsubsf3.o)
 .data          0x0020bdd0        0x0 /home/lego/Documents/gnatmindstorms2011/bin/../lib/gcc/arm-eabi/4.5.3/libgcc.a(_arm_muldivsf3.o)
 .data          0x0020bdd0        0x0 /home/lego/Documents/gnatmindstorms2011/bin/../lib/gcc/arm-eabi/4.5.3/libgcc.a(_aeabi_ldivmod.o)
 .data          0x0020bdd0        0x0 /home/lego/Documents/gnatmindstorms2011/bin/../lib/gcc/arm-eabi/4.5.3/libgcc.a(_aeabi_uldivmod.o)
 .data          0x0020bdd0        0x0 /home/lego/Documents/gnatmindstorms2011/bin/../lib/gcc/arm-eabi/4.5.3/libgcc.a(bpabi.o)
 .data          0x0020bdd0        0x0 /home/lego/Documents/gnatmindstorms2011/bin/../lib/gcc/arm-eabi/4.5.3/libgcc.a(_divdi3.o)
 .data          0x0020bdd0        0x0 /home/lego/Documents/gnatmindstorms2011/bin/../lib/gcc/arm-eabi/4.5.3/libgcc.a(_udivdi3.o)
 .data          0x0020bdd0        0x0 /home/lego/Documents/gnatmindstorms2011/bin/../lib/gcc/arm-eabi/4.5.3/libgcc.a(_clzsi2.o)
                0x0020bdd0                . = ALIGN (0x10)
                0x0020bcc0                __data_ram_start__ = ADDR (.data)
                0x0020bdd0                __data_ram_end__ = (ADDR (.data) + SIZEOF (.data))
                0x0020bcc0                __data_load_start__ = LOADADDR (.data)
                0x0020bdd0                __data_load_end__ = (__data_load_start__ + SIZEOF (.data))

.stack          0x0020bdd0      0x480
                0x0020be50                . = (. + 0x80)
 *fill*         0x0020bdd0       0x80 00
                0x0020be50                . = ALIGN (0x10)
                0x0020be50                __irq_stack__ = .
                0x0020be50                __system_stack_bottom__ = .
                0x0020be50                __stack_bottom = .
                0x0020c250                . = (. + 0x400)
 *fill*         0x0020be50      0x400 00
                0x0020c250                . = ALIGN (0x10)
                0x0020c250                __system_stack__ = .
                0x0020c250                __stack_top = .
                0x0020c250                __system_stack_top__ = .
                0x0020bdd0                __stack_start__ = ADDR (.stack)
                0x0020c250                __stack_end__ = (ADDR (.stack) + SIZEOF (.stack))

.bss            0x0020c250     0x2420
 *(*.bss *.bss.*)
 .bss           0x0020c250        0x0 b~tests.o
 .bss           0x0020c250        0x0 vectors.o
 .bss           0x0020c250        0x0 init.o
 .bss           0x0020c250        0x0 main.o
 .bss           0x0020c250        0x0 irq.o
 .bss           0x0020c250        0x0 context_switch-bb-arm.o
 .bss           0x0020c250        0x0 ./ada.o
 .bss           0x0020c250        0x0 ./interfac.o
 .bss           0x0020c250        0x0 ./i-c.o
 .bss           0x0020c250        0x0 ./system.o
 .bss           0x0020c250        0x0 ./a-except.o
 .bss           0x0020c250        0x0 ./s-bb.o
 .bss           0x0020c250        0x0 ./s-maccod.o
 .bss           0x0020c250        0x0 ./s-parame.o
 .bss           0x0020c250        0x0 ./s-stoele.o
 .bss           0x0020c250        0x0 ./s-bbpara.o
 .bss           0x0020c250        0x0 ./s-bbpere.o
 .bss           0x0020c250        0x0 ./s-multip.o
 .bss           0x0020c250        0x0 ./s-bcprmu.o
 .bss           0x0020c250        0x0 ./s-bbperi.o
 .bss           0x0020c250        0x0 ./s-bbthqu.o
 .bss           0x0020c250      0x408 ./s-bbthre.o
                0x0020c250                system__bb__threads__slave_stacks
                0x0020c650                slave_stack_table
 .bss           0x0020c658       0x80 ./s-bbinte.o
                0x0020c658                system__bb__interrupts__interrupt_handlers
 .bss           0x0020c6d8        0x4 ./s-bbtime.o
 .bss           0x0020c6dc        0x0 ./s-bbcppr.o
 .bss           0x0020c6dc        0x0 ./s-bbprot.o
 .bss           0x0020c6dc        0x0 ./s-musplo.o
 .bss           0x0020c6dc        0x0 ./s-osinte.o
 .bss           0x0020c6dc        0x0 ./s-mufalo.o
 .bss           0x0020c6dc        0x0 ./s-tasinf.o
 .bss           0x0020c6dc        0x0 ./s-taspri.o
 .bss           0x0020c6dc        0x0 ./s-tasdeb.o
 .bss           0x0020c6dc        0x0 ./s-taprop.o
 .bss           0x0020c6dc        0x0 ./s-unstyp.o
 *fill*         0x0020c6dc        0x4 00
 .bss           0x0020c6e0        0x8 ./a-reatim.o
                0x0020c6e0                ada__real_time__time_unit
 .bss           0x0020c6e8        0x0 ./a-retide.o
 .bss           0x0020c6e8      0x2b0 ./s-taskin.o
                0x0020c990                tasking_error
 .bss           0x0020c998        0x4 ./s-secsta.o
                0x0020c998                system__secondary_stack__ss_pool
 .bss           0x0020c99c        0x0 ./s-taprob.o
 .bss           0x0020c99c        0x8 ./s-tpobmu.o
 .bss           0x0020c9a4        0x0 ./s-tposen.o
 .bss           0x0020c9a4      0x108 ./s-interr.o
                0x0020c9a4                system__interrupts__user_handlers
 .bss           0x0020caac        0x0 ./a-interr.o
 .bss           0x0020caac        0x0 ./s-tasres.o
 .bss           0x0020caac        0x0 ./s-tarest.o
 .bss           0x0020caac        0x0 ./memory_compare.o
 .bss           0x0020caac        0x0 ./memory_copy.o
 .bss           0x0020caac        0x0 ./memory_set.o
 .bss           0x0020caac        0x0 ./nxt.o
 .bss           0x0020caac        0x0 ./nxt-registers.o
 .bss           0x0020caac      0x334 ./nxt-audio.o
 .bss           0x0020cde0        0x0 ./nxt-bc4-messages.o
 .bss           0x0020cde0      0x110 ./nxt-bc4.o
                0x0020cde8                nxt__bc4__index
                0x0020cdec                nxt__bc4__current_buffer
                0x0020cdf0                nxt__bc4__incoming
 .bss           0x0020cef0        0x1 ./nxt-bluetooth.o
                0x0020cef0                nxt__bluetooth__handle
 .bss           0x0020cef1        0x0 ./nxt-buffers.o
 *fill*         0x0020cef1        0x3 00
 .bss           0x0020cef4      0x200 ./nxt-bc4-io.o
 .bss           0x0020d0f4        0x0 ./nxt-filtering.o
 .bss           0x0020d0f4        0x0 ./nxt-last_chance.o
 .bss           0x0020d0f4        0x0 ./nxt-fonts.o
 .bss           0x0020d0f4       0x10 ./nxt-motor_encoders.o
 .bss           0x0020d104        0x0 ./nxt-priorities.o
 .bss           0x0020d104       0x24 ./nxt-spi.o
 .bss           0x0020d128        0x0 ./nxt-lcd.o
 .bss           0x0020d128       0x88 ./nxt-display.o
 .bss           0x0020d1b0       0x2c ./nxt-twi.o
 .bss           0x0020d1dc        0x0 ./nxt-avr_io.o
 *fill*         0x0020d1dc        0x4 00
 .bss           0x0020d1e0     0x1130 ./nxt-avr.o
                0x0020d23c                nxt__avr__button
                0x0020d240                nxt__avr__raw_input
                0x0020d248                nxt__avr__raw_battery
 .bss           0x0020e310        0x0 ./nxt-battery.o
 .bss           0x0020e310        0x0 ./menus.o
 .bss           0x0020e310        0x0 ./menu_tests.o
 .bss           0x0020e310        0x0 ./menu_sounds.o
 .bss           0x0020e310        0x0 ./menu_motors.o
 .bss           0x0020e310      0x360 ./menu_bt.o
 .bss           0x0020e670        0x0 ./tests.o
 .bss           0x0020e670        0x0 /home/lego/Documents/gnatmindstorms2011/bin/../lib/gcc/arm-eabi/4.5.3/libgcc.a(_udivsi3.o)
 .bss           0x0020e670        0x0 /home/lego/Documents/gnatmindstorms2011/bin/../lib/gcc/arm-eabi/4.5.3/libgcc.a(_divsi3.o)
 .bss           0x0020e670        0x0 /home/lego/Documents/gnatmindstorms2011/bin/../lib/gcc/arm-eabi/4.5.3/libgcc.a(_dvmd_tls.o)
 .bss           0x0020e670        0x0 /home/lego/Documents/gnatmindstorms2011/bin/../lib/gcc/arm-eabi/4.5.3/libgcc.a(_arm_addsubsf3.o)
 .bss           0x0020e670        0x0 /home/lego/Documents/gnatmindstorms2011/bin/../lib/gcc/arm-eabi/4.5.3/libgcc.a(_arm_muldivsf3.o)
 .bss           0x0020e670        0x0 /home/lego/Documents/gnatmindstorms2011/bin/../lib/gcc/arm-eabi/4.5.3/libgcc.a(_aeabi_ldivmod.o)
 .bss           0x0020e670        0x0 /home/lego/Documents/gnatmindstorms2011/bin/../lib/gcc/arm-eabi/4.5.3/libgcc.a(_aeabi_uldivmod.o)
 .bss           0x0020e670        0x0 /home/lego/Documents/gnatmindstorms2011/bin/../lib/gcc/arm-eabi/4.5.3/libgcc.a(bpabi.o)
 .bss           0x0020e670        0x0 /home/lego/Documents/gnatmindstorms2011/bin/../lib/gcc/arm-eabi/4.5.3/libgcc.a(_divdi3.o)
 .bss           0x0020e670        0x0 /home/lego/Documents/gnatmindstorms2011/bin/../lib/gcc/arm-eabi/4.5.3/libgcc.a(_udivdi3.o)
 .bss           0x0020e670        0x0 /home/lego/Documents/gnatmindstorms2011/bin/../lib/gcc/arm-eabi/4.5.3/libgcc.a(_clzsi2.o)
                0x0020e670                . = ALIGN (0x10)
                0x0020e670                __bss_end__ = .
                0x0020c250                __bss_start__ = ADDR (.bss)
                0x0020e670                __bss_end__ = (ADDR (.bss) + SIZEOF (.bss))
                0x0020e670                __free_ram_start__ = __bss_end__
                0x00210000                __free_ram_end__ = (RAM_BASE + RAM_SIZE)
                0x0020e670                REPORTME_RAM_TOP = __bss_end__
                0x00001990                REPORTME_FREE_RAM_SIZE = (__free_ram_end__ - __free_ram_start__)
OUTPUT(tests elf32-littlearm)

.debug_abbrev   0x00000000     0x5d4c
 .debug_abbrev  0x00000000       0xd5 b~tests.o
 .debug_abbrev  0x000000d5       0x14 vectors.o
 .debug_abbrev  0x000000e9       0x14 init.o
 .debug_abbrev  0x000000fd       0x90 main.o
 .debug_abbrev  0x0000018d       0x14 irq.o
 .debug_abbrev  0x000001a1       0x14 context_switch-bb-arm.o
 .debug_abbrev  0x000001b5        0x1 ./ada.o
 .debug_abbrev  0x000001b6       0x2a ./interfac.o
 .debug_abbrev  0x000001e0       0x5e ./i-c.o
 .debug_abbrev  0x0000023e       0x69 ./system.o
 .debug_abbrev  0x000002a7       0xce ./a-except.o
 .debug_abbrev  0x00000375        0x1 ./s-bb.o
 .debug_abbrev  0x00000376       0x51 ./s-maccod.o
 .debug_abbrev  0x000003c7       0xba ./s-parame.o
 .debug_abbrev  0x00000481       0x88 ./s-stoele.o
 .debug_abbrev  0x00000509       0x44 ./s-bbpara.o
 .debug_abbrev  0x0000054d       0xe8 ./s-bbpere.o
 .debug_abbrev  0x00000635       0x59 ./s-multip.o
 .debug_abbrev  0x0000068e       0x7f ./s-bcprmu.o
 .debug_abbrev  0x0000070d       0xac ./s-bbperi.o
 .debug_abbrev  0x000007b9      0x1f8 ./s-bbthqu.o
 .debug_abbrev  0x000009b1      0x1ec ./s-bbthre.o
 .debug_abbrev  0x00000b9d      0x291 ./s-bbinte.o
 .debug_abbrev  0x00000e2e      0x20c ./s-bbtime.o
 .debug_abbrev  0x0000103a      0x177 ./s-bbcppr.o
 .debug_abbrev  0x000011b1       0x78 ./s-bbprot.o
 .debug_abbrev  0x00001229       0xc0 ./s-musplo.o
 .debug_abbrev  0x000012e9       0xdb ./s-osinte.o
 .debug_abbrev  0x000013c4      0x171 ./s-mufalo.o
 .debug_abbrev  0x00001535       0x51 ./s-tasinf.o
 .debug_abbrev  0x00001586       0x2a ./s-taspri.o
 .debug_abbrev  0x000015b0      0x176 ./s-tasdeb.o
 .debug_abbrev  0x00001726      0x257 ./s-taprop.o
 .debug_abbrev  0x0000197d       0x1d ./s-unstyp.o
 .debug_abbrev  0x0000199a      0x157 ./a-reatim.o
 .debug_abbrev  0x00001af1       0x97 ./a-retide.o
 .debug_abbrev  0x00001b88      0x389 ./s-taskin.o
 .debug_abbrev  0x00001f11      0x1c1 ./s-secsta.o
 .debug_abbrev  0x000020d2      0x1c8 ./s-taprob.o
 .debug_abbrev  0x0000229a      0x1f6 ./s-tpobmu.o
 .debug_abbrev  0x00002490      0x292 ./s-tposen.o
 .debug_abbrev  0x00002722      0x1c1 ./s-interr.o
 .debug_abbrev  0x000028e3       0xd4 ./a-interr.o
 .debug_abbrev  0x000029b7        0x1 ./s-tasres.o
 .debug_abbrev  0x000029b8      0x2d5 ./s-tarest.o
 .debug_abbrev  0x00002c8d      0x15c ./memory_compare.o
 .debug_abbrev  0x00002de9      0x176 ./memory_copy.o
 .debug_abbrev  0x00002f5f      0x17a ./memory_set.o
 .debug_abbrev  0x000030d9       0x1f ./nxt.o
 .debug_abbrev  0x000030f8       0x3b ./nxt-registers.o
 .debug_abbrev  0x00003133      0x4ae ./nxt-audio.o
 .debug_abbrev  0x000035e1       0x35 ./nxt-bc4-messages.o
 .debug_abbrev  0x00003616      0x2aa ./nxt-bc4.o
 .debug_abbrev  0x000038c0      0x2f2 ./nxt-bluetooth.o
 .debug_abbrev  0x00003bb2        0x1 ./nxt-buffers.o
 .debug_abbrev  0x00003bb3      0x13b ./nxt-bc4-io.o
 .debug_abbrev  0x00003cee        0x1 ./nxt-filtering.o
 .debug_abbrev  0x00003cef       0x67 ./nxt-last_chance.o
 .debug_abbrev  0x00003d56       0xba ./nxt-fonts.o
 .debug_abbrev  0x00003e10      0x267 ./nxt-motor_encoders.o
 .debug_abbrev  0x00004077       0x42 ./nxt-priorities.o
 .debug_abbrev  0x000040b9      0x2c9 ./nxt-spi.o
 .debug_abbrev  0x00004382      0x1cd ./nxt-lcd.o
 .debug_abbrev  0x0000454f      0x2d8 ./nxt-display.o
 .debug_abbrev  0x00004827      0x2e9 ./nxt-twi.o
 .debug_abbrev  0x00004b10      0x1d2 ./nxt-avr_io.o
 .debug_abbrev  0x00004ce2      0x33e ./nxt-avr.o
 .debug_abbrev  0x00005020       0x92 ./nxt-battery.o
 .debug_abbrev  0x000050b2      0x184 ./menus.o
 .debug_abbrev  0x00005236      0x169 ./menu_tests.o
 .debug_abbrev  0x0000539f       0xc3 ./menu_sounds.o
 .debug_abbrev  0x00005462      0x1f7 ./menu_motors.o
 .debug_abbrev  0x00005659      0x2ab ./menu_bt.o
 .debug_abbrev  0x00005904       0x85 ./tests.o
 .debug_abbrev  0x00005989       0x14 /home/lego/Documents/gnatmindstorms2011/bin/../lib/gcc/arm-eabi/4.5.3/libgcc.a(_udivsi3.o)
 .debug_abbrev  0x0000599d       0x14 /home/lego/Documents/gnatmindstorms2011/bin/../lib/gcc/arm-eabi/4.5.3/libgcc.a(_divsi3.o)
 .debug_abbrev  0x000059b1       0x14 /home/lego/Documents/gnatmindstorms2011/bin/../lib/gcc/arm-eabi/4.5.3/libgcc.a(_dvmd_tls.o)
 .debug_abbrev  0x000059c5       0x14 /home/lego/Documents/gnatmindstorms2011/bin/../lib/gcc/arm-eabi/4.5.3/libgcc.a(_arm_addsubsf3.o)
 .debug_abbrev  0x000059d9       0x14 /home/lego/Documents/gnatmindstorms2011/bin/../lib/gcc/arm-eabi/4.5.3/libgcc.a(_arm_muldivsf3.o)
 .debug_abbrev  0x000059ed       0x14 /home/lego/Documents/gnatmindstorms2011/bin/../lib/gcc/arm-eabi/4.5.3/libgcc.a(_aeabi_ldivmod.o)
 .debug_abbrev  0x00005a01       0x14 /home/lego/Documents/gnatmindstorms2011/bin/../lib/gcc/arm-eabi/4.5.3/libgcc.a(_aeabi_uldivmod.o)
 .debug_abbrev  0x00005a15       0x6e /home/lego/Documents/gnatmindstorms2011/bin/../lib/gcc/arm-eabi/4.5.3/libgcc.a(bpabi.o)
 .debug_abbrev  0x00005a83      0x162 /home/lego/Documents/gnatmindstorms2011/bin/../lib/gcc/arm-eabi/4.5.3/libgcc.a(_divdi3.o)
 .debug_abbrev  0x00005be5      0x153 /home/lego/Documents/gnatmindstorms2011/bin/../lib/gcc/arm-eabi/4.5.3/libgcc.a(_udivdi3.o)
 .debug_abbrev  0x00005d38       0x14 /home/lego/Documents/gnatmindstorms2011/bin/../lib/gcc/arm-eabi/4.5.3/libgcc.a(_clzsi2.o)

.debug_info     0x00000000    0x14335
 .debug_info    0x00000000      0xccb b~tests.o
 .debug_info    0x00000ccb       0xbf vectors.o
 .debug_info    0x00000d8a       0xbc init.o
 .debug_info    0x00000e46       0xbe main.o
 .debug_info    0x00000f04       0xbb irq.o
 .debug_info    0x00000fbf       0xcd context_switch-bb-arm.o
 .debug_info    0x0000108c        0x0 ./ada.o
 .debug_info    0x0000108c       0x73 ./interfac.o
 .debug_info    0x000010ff       0xdf ./i-c.o
 .debug_info    0x000011de      0x2db ./system.o
 .debug_info    0x000014b9      0x11f ./a-except.o
 .debug_info    0x000015d8        0x0 ./s-bb.o
 .debug_info    0x000015d8       0x9c ./s-maccod.o
 .debug_info    0x00001674      0x1b4 ./s-parame.o
 .debug_info    0x00001828      0x1cf ./s-stoele.o
 .debug_info    0x000019f7       0x7f ./s-bbpara.o
 .debug_info    0x00001a76      0xde8 ./s-bbpere.o
 .debug_info    0x0000285e       0x6e ./s-multip.o
 .debug_info    0x000028cc       0xae ./s-bcprmu.o
 .debug_info    0x0000297a       0xf2 ./s-bbperi.o
 .debug_info    0x00002a6c      0x550 ./s-bbthqu.o
 .debug_info    0x00002fbc      0x46a ./s-bbthre.o
 .debug_info    0x00003426      0x657 ./s-bbinte.o
 .debug_info    0x00003a7d      0x3a5 ./s-bbtime.o
 .debug_info    0x00003e22      0x2b0 ./s-bbcppr.o
 .debug_info    0x000040d2       0xaf ./s-bbprot.o
 .debug_info    0x00004181      0x13d ./s-musplo.o
 .debug_info    0x000042be      0x213 ./s-osinte.o
 .debug_info    0x000044d1      0x29d ./s-mufalo.o
 .debug_info    0x0000476e       0x64 ./s-tasinf.o
 .debug_info    0x000047d2       0x4d ./s-taspri.o
 .debug_info    0x0000481f      0x4e1 ./s-tasdeb.o
 .debug_info    0x00004d00      0x80e ./s-taprop.o
 .debug_info    0x0000550e       0x76 ./s-unstyp.o
 .debug_info    0x00005584      0x631 ./a-reatim.o
 .debug_info    0x00005bb5       0xf1 ./a-retide.o
 .debug_info    0x00005ca6      0x9ff ./s-taskin.o
 .debug_info    0x000066a5      0x29b ./s-secsta.o
 .debug_info    0x00006940      0x684 ./s-taprob.o
 .debug_info    0x00006fc4      0x63b ./s-tpobmu.o
 .debug_info    0x000075ff      0x969 ./s-tposen.o
 .debug_info    0x00007f68      0x2e6 ./s-interr.o
 .debug_info    0x0000824e      0x1e5 ./a-interr.o
 .debug_info    0x00008433        0x0 ./s-tasres.o
 .debug_info    0x00008433      0x8bf ./s-tarest.o
 .debug_info    0x00008cf2      0x201 ./memory_compare.o
 .debug_info    0x00008ef3      0x2f9 ./memory_copy.o
 .debug_info    0x000091ec      0x1f7 ./memory_set.o
 .debug_info    0x000093e3       0x2a ./nxt.o
 .debug_info    0x0000940d       0x43 ./nxt-registers.o
 .debug_info    0x00009450     0x186f ./nxt-audio.o
 .debug_info    0x0000acbf      0x478 ./nxt-bc4-messages.o
 .debug_info    0x0000b137      0x64d ./nxt-bc4.o
 .debug_info    0x0000b784      0xf82 ./nxt-bluetooth.o
 .debug_info    0x0000c706        0x0 ./nxt-buffers.o
 .debug_info    0x0000c706      0x2a5 ./nxt-bc4-io.o
 .debug_info    0x0000c9ab        0x0 ./nxt-filtering.o
 .debug_info    0x0000c9ab       0x9f ./nxt-last_chance.o
 .debug_info    0x0000ca4a       0xfe ./nxt-fonts.o
 .debug_info    0x0000cb48      0x8ae ./nxt-motor_encoders.o
 .debug_info    0x0000d3f6       0x4b ./nxt-priorities.o
 .debug_info    0x0000d441      0xbcf ./nxt-spi.o
 .debug_info    0x0000e010      0x3a5 ./nxt-lcd.o
 .debug_info    0x0000e3b5      0x7df ./nxt-display.o
 .debug_info    0x0000eb94      0xd48 ./nxt-twi.o
 .debug_info    0x0000f8dc      0x83c ./nxt-avr_io.o
 .debug_info    0x00010118     0x10b5 ./nxt-avr.o
 .debug_info    0x000111cd       0xab ./nxt-battery.o
 .debug_info    0x00011278      0x2a5 ./menus.o
 .debug_info    0x0001151d      0x2dd ./menu_tests.o
 .debug_info    0x000117fa      0x113 ./menu_sounds.o
 .debug_info    0x0001190d      0x437 ./menu_motors.o
 .debug_info    0x00011d44     0x129f ./menu_bt.o
 .debug_info    0x00012fe3       0xa7 ./tests.o
 .debug_info    0x0001308a       0xc9 /home/lego/Documents/gnatmindstorms2011/bin/../lib/gcc/arm-eabi/4.5.3/libgcc.a(_udivsi3.o)
 .debug_info    0x00013153       0xc9 /home/lego/Documents/gnatmindstorms2011/bin/../lib/gcc/arm-eabi/4.5.3/libgcc.a(_divsi3.o)
 .debug_info    0x0001321c       0xc9 /home/lego/Documents/gnatmindstorms2011/bin/../lib/gcc/arm-eabi/4.5.3/libgcc.a(_dvmd_tls.o)
 .debug_info    0x000132e5       0xc8 /home/lego/Documents/gnatmindstorms2011/bin/../lib/gcc/arm-eabi/4.5.3/libgcc.a(_arm_addsubsf3.o)
 .debug_info    0x000133ad       0xc8 /home/lego/Documents/gnatmindstorms2011/bin/../lib/gcc/arm-eabi/4.5.3/libgcc.a(_arm_muldivsf3.o)
 .debug_info    0x00013475       0xc3 /home/lego/Documents/gnatmindstorms2011/bin/../lib/gcc/arm-eabi/4.5.3/libgcc.a(_aeabi_ldivmod.o)
 .debug_info    0x00013538       0xc3 /home/lego/Documents/gnatmindstorms2011/bin/../lib/gcc/arm-eabi/4.5.3/libgcc.a(_aeabi_uldivmod.o)
 .debug_info    0x000135fb       0xf0 /home/lego/Documents/gnatmindstorms2011/bin/../lib/gcc/arm-eabi/4.5.3/libgcc.a(bpabi.o)
 .debug_info    0x000136eb      0x5e1 /home/lego/Documents/gnatmindstorms2011/bin/../lib/gcc/arm-eabi/4.5.3/libgcc.a(_divdi3.o)
 .debug_info    0x00013ccc      0x5a0 /home/lego/Documents/gnatmindstorms2011/bin/../lib/gcc/arm-eabi/4.5.3/libgcc.a(_udivdi3.o)
 .debug_info    0x0001426c       0xc9 /home/lego/Documents/gnatmindstorms2011/bin/../lib/gcc/arm-eabi/4.5.3/libgcc.a(_clzsi2.o)

.debug_line     0x00000000     0x5a1b
 .debug_line    0x00000000       0xc5 b~tests.o
 .debug_line    0x000000c5       0x7f vectors.o
 .debug_line    0x00000144       0xf2 init.o
 .debug_line    0x00000236       0x8a main.o
 .debug_line    0x000002c0       0x84 irq.o
 .debug_line    0x00000344       0x8e context_switch-bb-arm.o
 .debug_line    0x000003d2        0x0 ./ada.o
 .debug_line    0x000003d2       0x1d ./interfac.o
 .debug_line    0x000003ef       0x84 ./i-c.o
 .debug_line    0x00000473       0x87 ./system.o
 .debug_line    0x000004fa       0xb7 ./a-except.o
 .debug_line    0x000005b1        0x0 ./s-bb.o
 .debug_line    0x000005b1       0x89 ./s-maccod.o
 .debug_line    0x0000063a       0xaa ./s-parame.o
 .debug_line    0x000006e4       0xc0 ./s-stoele.o
 .debug_line    0x000007a4       0x89 ./s-bbpara.o
 .debug_line    0x0000082d       0x88 ./s-bbpere.o
 .debug_line    0x000008b5       0xaa ./s-multip.o
 .debug_line    0x0000095f       0xb0 ./s-bcprmu.o
 .debug_line    0x00000a0f       0xb2 ./s-bbperi.o
 .debug_line    0x00000ac1      0x167 ./s-bbthqu.o
 .debug_line    0x00000c28      0x16b ./s-bbthre.o
 .debug_line    0x00000d93      0x1c2 ./s-bbinte.o
 .debug_line    0x00000f55      0x172 ./s-bbtime.o
 .debug_line    0x000010c7       0xc9 ./s-bbcppr.o
 .debug_line    0x00001190       0xd0 ./s-bbprot.o
 .debug_line    0x00001260       0xb0 ./s-musplo.o
 .debug_line    0x00001310       0xb7 ./s-osinte.o
 .debug_line    0x000013c7       0xdf ./s-mufalo.o
 .debug_line    0x000014a6       0x89 ./s-tasinf.o
 .debug_line    0x0000152f       0x1d ./s-taspri.o
 .debug_line    0x0000154c      0x10c ./s-tasdeb.o
 .debug_line    0x00001658      0x15b ./s-taprop.o
 .debug_line    0x000017b3       0x1d ./s-unstyp.o
 .debug_line    0x000017d0      0x1fe ./a-reatim.o
 .debug_line    0x000019ce       0xb1 ./a-retide.o
 .debug_line    0x00001a7f      0x1aa ./s-taskin.o
 .debug_line    0x00001c29       0xc1 ./s-secsta.o
 .debug_line    0x00001cea      0x14d ./s-taprob.o
 .debug_line    0x00001e37      0x15f ./s-tpobmu.o
 .debug_line    0x00001f96      0x197 ./s-tposen.o
 .debug_line    0x0000212d       0xf0 ./s-interr.o
 .debug_line    0x0000221d       0xb9 ./a-interr.o
 .debug_line    0x000022d6        0x0 ./s-tasres.o
 .debug_line    0x000022d6      0x175 ./s-tarest.o
 .debug_line    0x0000244b      0x102 ./memory_compare.o
 .debug_line    0x0000254d      0x164 ./memory_copy.o
 .debug_line    0x000026b1       0xf5 ./memory_set.o
 .debug_line    0x000027a6       0x1d ./nxt.o
 .debug_line    0x000027c3       0x1d ./nxt-registers.o
 .debug_line    0x000027e0      0x4d9 ./nxt-audio.o
 .debug_line    0x00002cb9       0x8e ./nxt-bc4-messages.o
 .debug_line    0x00002d47      0x2dd ./nxt-bc4.o
 .debug_line    0x00003024      0x2d5 ./nxt-bluetooth.o
 .debug_line    0x000032f9        0x0 ./nxt-buffers.o
 .debug_line    0x000032f9      0x1b0 ./nxt-bc4-io.o
 .debug_line    0x000034a9        0x0 ./nxt-filtering.o
 .debug_line    0x000034a9       0xd8 ./nxt-last_chance.o
 .debug_line    0x00003581       0x87 ./nxt-fonts.o
 .debug_line    0x00003608      0x253 ./nxt-motor_encoders.o
 .debug_line    0x0000385b       0x8c ./nxt-priorities.o
 .debug_line    0x000038e7      0x26a ./nxt-spi.o
 .debug_line    0x00003b51       0xe2 ./nxt-lcd.o
 .debug_line    0x00003c33      0x2db ./nxt-display.o
 .debug_line    0x00003f0e      0x274 ./nxt-twi.o
 .debug_line    0x00004182      0x232 ./nxt-avr_io.o
 .debug_line    0x000043b4      0x351 ./nxt-avr.o
 .debug_line    0x00004705       0xb3 ./nxt-battery.o
 .debug_line    0x000047b8      0x15a ./menus.o
 .debug_line    0x00004912      0x15e ./menu_tests.o
 .debug_line    0x00004a70       0x56 ./menu_sounds.o
 .debug_line    0x00004ac6      0x207 ./menu_motors.o
 .debug_line    0x00004ccd      0x48a ./menu_bt.o
 .debug_line    0x00005157       0xcb ./tests.o
 .debug_line    0x00005222       0xa2 /home/lego/Documents/gnatmindstorms2011/bin/../lib/gcc/arm-eabi/4.5.3/libgcc.a(_udivsi3.o)
 .debug_line    0x000052c4       0xae /home/lego/Documents/gnatmindstorms2011/bin/../lib/gcc/arm-eabi/4.5.3/libgcc.a(_divsi3.o)
 .debug_line    0x00005372       0x79 /home/lego/Documents/gnatmindstorms2011/bin/../lib/gcc/arm-eabi/4.5.3/libgcc.a(_dvmd_tls.o)
 .debug_line    0x000053eb      0x12f /home/lego/Documents/gnatmindstorms2011/bin/../lib/gcc/arm-eabi/4.5.3/libgcc.a(_arm_addsubsf3.o)
 .debug_line    0x0000551a      0x139 /home/lego/Documents/gnatmindstorms2011/bin/../lib/gcc/arm-eabi/4.5.3/libgcc.a(_arm_muldivsf3.o)
 .debug_line    0x00005653       0x7a /home/lego/Documents/gnatmindstorms2011/bin/../lib/gcc/arm-eabi/4.5.3/libgcc.a(_aeabi_ldivmod.o)
 .debug_line    0x000056cd       0x7c /home/lego/Documents/gnatmindstorms2011/bin/../lib/gcc/arm-eabi/4.5.3/libgcc.a(_aeabi_uldivmod.o)
 .debug_line    0x00005749       0x79 /home/lego/Documents/gnatmindstorms2011/bin/../lib/gcc/arm-eabi/4.5.3/libgcc.a(bpabi.o)
 .debug_line    0x000057c2       0xf0 /home/lego/Documents/gnatmindstorms2011/bin/../lib/gcc/arm-eabi/4.5.3/libgcc.a(_divdi3.o)
 .debug_line    0x000058b2       0xe3 /home/lego/Documents/gnatmindstorms2011/bin/../lib/gcc/arm-eabi/4.5.3/libgcc.a(_udivdi3.o)
 .debug_line    0x00005995       0x86 /home/lego/Documents/gnatmindstorms2011/bin/../lib/gcc/arm-eabi/4.5.3/libgcc.a(_clzsi2.o)

.debug_loc      0x00000000     0x6e04
 .debug_loc     0x00000000       0x40 b~tests.o
 .debug_loc     0x00000040       0x53 main.o
 .debug_loc     0x00000093       0x33 ./a-except.o
 .debug_loc     0x000000c6       0x13 ./s-parame.o
 .debug_loc     0x000000d9       0xa8 ./s-stoele.o
 .debug_loc     0x00000181       0x26 ./s-bbperi.o
 .debug_loc     0x000001a7      0x401 ./s-bbthqu.o
 .debug_loc     0x000005a8      0x2df ./s-bbthre.o
 .debug_loc     0x00000887      0x140 ./s-bbinte.o
 .debug_loc     0x000009c7      0x102 ./s-bbtime.o
 .debug_loc     0x00000ac9       0x6d ./s-bbcppr.o
 .debug_loc     0x00000b36       0x60 ./s-bbprot.o
 .debug_loc     0x00000b96       0x26 ./s-musplo.o
 .debug_loc     0x00000bbc      0x1e4 ./s-mufalo.o
 .debug_loc     0x00000da0      0x360 ./s-taprop.o
 .debug_loc     0x00001100      0x6f3 ./a-reatim.o
 .debug_loc     0x000017f3       0x51 ./a-retide.o
 .debug_loc     0x00001844      0x277 ./s-taskin.o
 .debug_loc     0x00001abb      0x15a ./s-secsta.o
 .debug_loc     0x00001c15      0x149 ./s-taprob.o
 .debug_loc     0x00001d5e       0xe5 ./s-tpobmu.o
 .debug_loc     0x00001e43      0x2a3 ./s-tposen.o
 .debug_loc     0x000020e6      0x11b ./s-interr.o
 .debug_loc     0x00002201      0x15e ./a-interr.o
 .debug_loc     0x0000235f      0x257 ./s-tarest.o
 .debug_loc     0x000025b6      0x116 ./memory_compare.o
 .debug_loc     0x000026cc      0x223 ./memory_copy.o
 .debug_loc     0x000028ef       0xc6 ./memory_set.o
 .debug_loc     0x000029b5      0xa5c ./nxt-audio.o
 .debug_loc     0x00003411      0x229 ./nxt-bc4.o
 .debug_loc     0x0000363a      0x59b ./nxt-bluetooth.o
 .debug_loc     0x00003bd5      0x21c ./nxt-bc4-io.o
 .debug_loc     0x00003df1       0x87 ./nxt-last_chance.o
 .debug_loc     0x00003e78       0x9b ./nxt-motor_encoders.o
 .debug_loc     0x00003f13      0x1db ./nxt-spi.o
 .debug_loc     0x000040ee      0x164 ./nxt-lcd.o
 .debug_loc     0x00004252      0x584 ./nxt-display.o
 .debug_loc     0x000047d6      0x298 ./nxt-twi.o
 .debug_loc     0x00004a6e      0x2c4 ./nxt-avr_io.o
 .debug_loc     0x00004d32      0x2c7 ./nxt-avr.o
 .debug_loc     0x00004ff9       0x58 ./nxt-battery.o
 .debug_loc     0x00005051      0x12d ./menus.o
 .debug_loc     0x0000517e      0x104 ./menu_tests.o
 .debug_loc     0x00005282       0xdc ./menu_sounds.o
 .debug_loc     0x0000535e      0x23f ./menu_motors.o
 .debug_loc     0x0000559d      0x447 ./menu_bt.o
 .debug_loc     0x000059e4       0x20 ./tests.o
 .debug_loc     0x00005a04       0xa0 /home/lego/Documents/gnatmindstorms2011/bin/../lib/gcc/arm-eabi/4.5.3/libgcc.a(bpabi.o)
 .debug_loc     0x00005aa4      0x9d4 /home/lego/Documents/gnatmindstorms2011/bin/../lib/gcc/arm-eabi/4.5.3/libgcc.a(_divdi3.o)
 .debug_loc     0x00006478      0x98c /home/lego/Documents/gnatmindstorms2011/bin/../lib/gcc/arm-eabi/4.5.3/libgcc.a(_udivdi3.o)

.debug_aranges  0x00000000      0x898
 .debug_aranges
                0x00000000       0x20 b~tests.o
 .debug_aranges
                0x00000020       0x20 vectors.o
 .debug_aranges
                0x00000040       0x20 init.o
 .debug_aranges
                0x00000060       0x20 main.o
 .debug_aranges
                0x00000080       0x20 irq.o
 .debug_aranges
                0x000000a0       0x20 context_switch-bb-arm.o
 .debug_aranges
                0x000000c0       0x18 ./i-c.o
 .debug_aranges
                0x000000d8       0x20 ./a-except.o
 .debug_aranges
                0x000000f8       0x18 ./s-maccod.o
 .debug_aranges
                0x00000110       0x20 ./s-parame.o
 .debug_aranges
                0x00000130       0x20 ./s-stoele.o
 .debug_aranges
                0x00000150       0x18 ./s-bbpere.o
 .debug_aranges
                0x00000168       0x20 ./s-multip.o
 .debug_aranges
                0x00000188       0x20 ./s-bcprmu.o
 .debug_aranges
                0x000001a8       0x20 ./s-bbperi.o
 .debug_aranges
                0x000001c8       0x20 ./s-bbthqu.o
 .debug_aranges
                0x000001e8       0x20 ./s-bbthre.o
 .debug_aranges
                0x00000208       0x20 ./s-bbinte.o
 .debug_aranges
                0x00000228       0x20 ./s-bbtime.o
 .debug_aranges
                0x00000248       0x20 ./s-bbcppr.o
 .debug_aranges
                0x00000268       0x20 ./s-bbprot.o
 .debug_aranges
                0x00000288       0x20 ./s-musplo.o
 .debug_aranges
                0x000002a8       0x20 ./s-mufalo.o
 .debug_aranges
                0x000002c8       0x18 ./s-taspri.o
 .debug_aranges
                0x000002e0       0x20 ./s-tasdeb.o
 .debug_aranges
                0x00000300       0x20 ./s-taprop.o
 .debug_aranges
                0x00000320       0x18 ./s-unstyp.o
 .debug_aranges
                0x00000338       0x20 ./a-reatim.o
 .debug_aranges
                0x00000358       0x20 ./a-retide.o
 .debug_aranges
                0x00000378       0x20 ./s-taskin.o
 .debug_aranges
                0x00000398       0x20 ./s-secsta.o
 .debug_aranges
                0x000003b8       0x20 ./s-taprob.o
 .debug_aranges
                0x000003d8       0x20 ./s-tpobmu.o
 .debug_aranges
                0x000003f8       0x20 ./s-tposen.o
 .debug_aranges
                0x00000418       0x20 ./s-interr.o
 .debug_aranges
                0x00000438       0x20 ./a-interr.o
 .debug_aranges
                0x00000458       0x20 ./s-tarest.o
 .debug_aranges
                0x00000478       0x20 ./memory_compare.o
 .debug_aranges
                0x00000498       0x20 ./memory_copy.o
 .debug_aranges
                0x000004b8       0x20 ./memory_set.o
 .debug_aranges
                0x000004d8       0x20 ./nxt-audio.o
 .debug_aranges
                0x000004f8       0x20 ./nxt-bc4.o
 .debug_aranges
                0x00000518       0x20 ./nxt-bluetooth.o
 .debug_aranges
                0x00000538       0x20 ./nxt-bc4-io.o
 .debug_aranges
                0x00000558       0x20 ./nxt-last_chance.o
 .debug_aranges
                0x00000578       0x20 ./nxt-motor_encoders.o
 .debug_aranges
                0x00000598       0x20 ./nxt-spi.o
 .debug_aranges
                0x000005b8       0x20 ./nxt-lcd.o
 .debug_aranges
                0x000005d8       0x20 ./nxt-display.o
 .debug_aranges
                0x000005f8       0x20 ./nxt-twi.o
 .debug_aranges
                0x00000618       0x20 ./nxt-avr_io.o
 .debug_aranges
                0x00000638       0x20 ./nxt-avr.o
 .debug_aranges
                0x00000658       0x20 ./nxt-battery.o
 .debug_aranges
                0x00000678       0x20 ./menus.o
 .debug_aranges
                0x00000698       0x20 ./menu_tests.o
 .debug_aranges
                0x000006b8       0x20 ./menu_sounds.o
 .debug_aranges
                0x000006d8       0x20 ./menu_motors.o
 .debug_aranges
                0x000006f8       0x20 ./menu_bt.o
 .debug_aranges
                0x00000718       0x20 ./tests.o
 .debug_aranges
                0x00000738       0x20 /home/lego/Documents/gnatmindstorms2011/bin/../lib/gcc/arm-eabi/4.5.3/libgcc.a(_udivsi3.o)
 .debug_aranges
                0x00000758       0x20 /home/lego/Documents/gnatmindstorms2011/bin/../lib/gcc/arm-eabi/4.5.3/libgcc.a(_divsi3.o)
 .debug_aranges
                0x00000778       0x20 /home/lego/Documents/gnatmindstorms2011/bin/../lib/gcc/arm-eabi/4.5.3/libgcc.a(_dvmd_tls.o)
 .debug_aranges
                0x00000798       0x20 /home/lego/Documents/gnatmindstorms2011/bin/../lib/gcc/arm-eabi/4.5.3/libgcc.a(_arm_addsubsf3.o)
 .debug_aranges
                0x000007b8       0x20 /home/lego/Documents/gnatmindstorms2011/bin/../lib/gcc/arm-eabi/4.5.3/libgcc.a(_arm_muldivsf3.o)
 .debug_aranges
                0x000007d8       0x20 /home/lego/Documents/gnatmindstorms2011/bin/../lib/gcc/arm-eabi/4.5.3/libgcc.a(_aeabi_ldivmod.o)
 .debug_aranges
                0x000007f8       0x20 /home/lego/Documents/gnatmindstorms2011/bin/../lib/gcc/arm-eabi/4.5.3/libgcc.a(_aeabi_uldivmod.o)
 .debug_aranges
                0x00000818       0x20 /home/lego/Documents/gnatmindstorms2011/bin/../lib/gcc/arm-eabi/4.5.3/libgcc.a(bpabi.o)
 .debug_aranges
                0x00000838       0x20 /home/lego/Documents/gnatmindstorms2011/bin/../lib/gcc/arm-eabi/4.5.3/libgcc.a(_divdi3.o)
 .debug_aranges
                0x00000858       0x20 /home/lego/Documents/gnatmindstorms2011/bin/../lib/gcc/arm-eabi/4.5.3/libgcc.a(_udivdi3.o)
 .debug_aranges
                0x00000878       0x20 /home/lego/Documents/gnatmindstorms2011/bin/../lib/gcc/arm-eabi/4.5.3/libgcc.a(_clzsi2.o)

.debug_str      0x00000000    0x10751
 .debug_str     0x00000000     0x15e3 b~tests.o
                               0x1618 (size before relaxing)
 .debug_str     0x000015e3      0x127 main.o
                                0x13e (size before relaxing)
 .debug_str     0x0000170a      0x17f ./interfac.o
                                0x1b3 (size before relaxing)
 .debug_str     0x00001889      0x241 ./i-c.o
                                0x27f (size before relaxing)
 .debug_str     0x00001aca      0x46c ./system.o
                                0x4c0 (size before relaxing)
 .debug_str     0x00001f36       0xf9 ./a-except.o
                                0x1af (size before relaxing)
 .debug_str     0x0000202f      0x181 ./s-maccod.o
                                0x215 (size before relaxing)
 .debug_str     0x000021b0      0x31e ./s-parame.o
                                0x383 (size before relaxing)
 .debug_str     0x000024ce      0x217 ./s-stoele.o
                                0x265 (size before relaxing)
 .debug_str     0x000026e5       0xe1 ./s-bbpara.o
                                0x143 (size before relaxing)
 .debug_str     0x000027c6     0x266e ./s-bbpere.o
                               0x26dc (size before relaxing)
 .debug_str     0x00004e34      0x13a ./s-multip.o
                                0x16e (size before relaxing)
 .debug_str     0x00004f6e      0x152 ./s-bcprmu.o
                                0x1d4 (size before relaxing)
 .debug_str     0x000050c0      0x1e6 ./s-bbperi.o
                                0x23b (size before relaxing)
 .debug_str     0x000052a6      0x5c5 ./s-bbthqu.o
                                0x718 (size before relaxing)
 .debug_str     0x0000586b      0x361 ./s-bbthre.o
                                0x6e5 (size before relaxing)
 .debug_str     0x00005bcc      0x3ce ./s-bbinte.o
                                0xa0c (size before relaxing)
 .debug_str     0x00005f9a      0x1aa ./s-bbtime.o
                                0x5d9 (size before relaxing)
 .debug_str     0x00006144      0x2ae ./s-bbcppr.o
                                0x42a (size before relaxing)
 .debug_str     0x000063f2      0x132 ./s-bbprot.o
                                0x1e2 (size before relaxing)
 .debug_str     0x00006524      0x1c3 ./s-musplo.o
                                0x204 (size before relaxing)
 .debug_str     0x000066e7      0x101 ./s-osinte.o
                                0x400 (size before relaxing)
 .debug_str     0x000067e8      0x221 ./s-mufalo.o
                                0x345 (size before relaxing)
 .debug_str     0x00006a09      0x14e ./s-tasinf.o
                                0x182 (size before relaxing)
 .debug_str     0x00006b57       0x69 ./s-taspri.o
                                0x103 (size before relaxing)
 .debug_str     0x00006bc0      0x567 ./s-tasdeb.o
                                0x99b (size before relaxing)
 .debug_str     0x00007127      0x479 ./s-taprop.o
                                0xdf7 (size before relaxing)
 .debug_str     0x000075a0      0x1e9 ./s-unstyp.o
                                0x22f (size before relaxing)
 .debug_str     0x00007789      0x4cc ./a-reatim.o
                                0x579 (size before relaxing)
 .debug_str     0x00007c55       0xfd ./a-retide.o
                                0x274 (size before relaxing)
 .debug_str     0x00007d52      0x46e ./s-taskin.o
                                0xe01 (size before relaxing)
 .debug_str     0x000081c0      0x2c8 ./s-secsta.o
                                0x3eb (size before relaxing)
 .debug_str     0x00008488      0x24f ./s-taprob.o
                                0xc19 (size before relaxing)
 .debug_str     0x000086d7      0x264 ./s-tpobmu.o
                                0xcb7 (size before relaxing)
 .debug_str     0x0000893b      0x5e7 ./s-tposen.o
                               0x1074 (size before relaxing)
 .debug_str     0x00008f22      0x3a3 ./s-interr.o
                                0x47d (size before relaxing)
 .debug_str     0x000092c5      0x1b9 ./a-interr.o
                                0x21b (size before relaxing)
 .debug_str     0x0000947e      0x365 ./s-tarest.o
                                0xe3d (size before relaxing)
 .debug_str     0x000097e3      0x1ea ./memory_compare.o
                                0x2f3 (size before relaxing)
 .debug_str     0x000099cd      0x1fd ./memory_copy.o
                                0x359 (size before relaxing)
 .debug_str     0x00009bca      0x15a ./memory_set.o
                                0x2e0 (size before relaxing)
 .debug_str     0x00009d24       0x72 ./nxt.o
                                 0xa6 (size before relaxing)
 .debug_str     0x00009d96       0xa8 ./nxt-registers.o
                                 0xff (size before relaxing)
 .debug_str     0x00009e3e      0xb3c ./nxt-audio.o
                               0x1bdb (size before relaxing)
 .debug_str     0x0000a97a      0xa41 ./nxt-bc4-messages.o
                                0xa8c (size before relaxing)
 .debug_str     0x0000b3bb      0x31d ./nxt-bc4.o
                                0xa74 (size before relaxing)
 .debug_str     0x0000b6d8     0x121e ./nxt-bluetooth.o
                               0x13eb (size before relaxing)
 .debug_str     0x0000c8f6      0x225 ./nxt-bc4-io.o
                                0x343 (size before relaxing)
 .debug_str     0x0000cb1b       0xa3 ./nxt-last_chance.o
                                0x15b (size before relaxing)
 .debug_str     0x0000cbbe      0x148 ./nxt-fonts.o
                                0x1af (size before relaxing)
 .debug_str     0x0000cd06      0x2a1 ./nxt-motor_encoders.o
                                0xee9 (size before relaxing)
 .debug_str     0x0000cfa7       0x92 ./nxt-priorities.o
                                 0xed (size before relaxing)
 .debug_str     0x0000d039      0x2d7 ./nxt-spi.o
                               0x12fb (size before relaxing)
 .debug_str     0x0000d310      0x24b ./nxt-lcd.o
                                0x304 (size before relaxing)
 .debug_str     0x0000d55b      0x5b8 ./nxt-display.o
                                0x76e (size before relaxing)
 .debug_str     0x0000db13      0x317 ./nxt-twi.o
                               0x12a9 (size before relaxing)
 .debug_str     0x0000de2a      0x8d0 ./nxt-avr_io.o
                                0xa81 (size before relaxing)
 .debug_str     0x0000e6fa      0x739 ./nxt-avr.o
                               0x1620 (size before relaxing)
 .debug_str     0x0000ee33       0xb1 ./nxt-battery.o
                                0x140 (size before relaxing)
 .debug_str     0x0000eee4      0x124 ./menus.o
                                0x2f2 (size before relaxing)
 .debug_str     0x0000f008       0xce ./menu_tests.o
                                0x393 (size before relaxing)
 .debug_str     0x0000f0d6       0x6c ./menu_sounds.o
                                0x159 (size before relaxing)
 .debug_str     0x0000f142      0x209 ./menu_motors.o
                                0x484 (size before relaxing)
 .debug_str     0x0000f34b     0x11f9 ./menu_bt.o
                               0x1662 (size before relaxing)
 .debug_str     0x00010544       0x1f ./tests.o
                                0x15b (size before relaxing)
 .debug_str     0x00010563       0xfe /home/lego/Documents/gnatmindstorms2011/bin/../lib/gcc/arm-eabi/4.5.3/libgcc.a(bpabi.o)
                                0x130 (size before relaxing)
 .debug_str     0x00010661       0xe6 /home/lego/Documents/gnatmindstorms2011/bin/../lib/gcc/arm-eabi/4.5.3/libgcc.a(_divdi3.o)
                                0x1e5 (size before relaxing)
 .debug_str     0x00010747        0xa /home/lego/Documents/gnatmindstorms2011/bin/../lib/gcc/arm-eabi/4.5.3/libgcc.a(_udivdi3.o)
                                0x1e6 (size before relaxing)

.comment        0x00000000       0x37
 .comment       0x00000000       0x37 b~tests.o
                                 0x38 (size before relaxing)
 .comment       0x00000000       0x38 main.o
 .comment       0x00000000       0x38 ./ada.o
 .comment       0x00000000       0x38 ./interfac.o
 .comment       0x00000000       0x38 ./i-c.o
 .comment       0x00000000       0x38 ./system.o
 .comment       0x00000000       0x38 ./a-except.o
 .comment       0x00000000       0x38 ./s-bb.o
 .comment       0x00000000       0x38 ./s-maccod.o
 .comment       0x00000000       0x38 ./s-parame.o
 .comment       0x00000000       0x38 ./s-stoele.o
 .comment       0x00000000       0x38 ./s-bbpara.o
 .comment       0x00000000       0x38 ./s-bbpere.o
 .comment       0x00000000       0x38 ./s-multip.o
 .comment       0x00000000       0x38 ./s-bcprmu.o
 .comment       0x00000000       0x38 ./s-bbperi.o
 .comment       0x00000000       0x38 ./s-bbthqu.o
 .comment       0x00000000       0x38 ./s-bbthre.o
 .comment       0x00000000       0x38 ./s-bbinte.o
 .comment       0x00000000       0x38 ./s-bbtime.o
 .comment       0x00000000       0x38 ./s-bbcppr.o
 .comment       0x00000000       0x38 ./s-bbprot.o
 .comment       0x00000000       0x38 ./s-musplo.o
 .comment       0x00000000       0x38 ./s-osinte.o
 .comment       0x00000000       0x38 ./s-mufalo.o
 .comment       0x00000000       0x38 ./s-tasinf.o
 .comment       0x00000000       0x38 ./s-taspri.o
 .comment       0x00000000       0x38 ./s-tasdeb.o
 .comment       0x00000000       0x38 ./s-taprop.o
 .comment       0x00000000       0x38 ./s-unstyp.o
 .comment       0x00000000       0x38 ./a-reatim.o
 .comment       0x00000000       0x38 ./a-retide.o
 .comment       0x00000000       0x38 ./s-taskin.o
 .comment       0x00000000       0x38 ./s-secsta.o
 .comment       0x00000000       0x38 ./s-taprob.o
 .comment       0x00000000       0x38 ./s-tpobmu.o
 .comment       0x00000000       0x38 ./s-tposen.o
 .comment       0x00000000       0x38 ./s-interr.o
 .comment       0x00000000       0x38 ./a-interr.o
 .comment       0x00000000       0x38 ./s-tasres.o
 .comment       0x00000000       0x38 ./s-tarest.o
 .comment       0x00000000       0x38 ./memory_compare.o
 .comment       0x00000000       0x38 ./memory_copy.o
 .comment       0x00000000       0x38 ./memory_set.o
 .comment       0x00000000       0x38 ./nxt.o
 .comment       0x00000000       0x38 ./nxt-registers.o
 .comment       0x00000000       0x38 ./nxt-audio.o
 .comment       0x00000000       0x38 ./nxt-bc4-messages.o
 .comment       0x00000000       0x38 ./nxt-bc4.o
 .comment       0x00000000       0x38 ./nxt-bluetooth.o
 .comment       0x00000000       0x38 ./nxt-buffers.o
 .comment       0x00000000       0x38 ./nxt-bc4-io.o
 .comment       0x00000000       0x38 ./nxt-filtering.o
 .comment       0x00000000       0x38 ./nxt-last_chance.o
 .comment       0x00000000       0x38 ./nxt-fonts.o
 .comment       0x00000000       0x38 ./nxt-motor_encoders.o
 .comment       0x00000000       0x38 ./nxt-priorities.o
 .comment       0x00000000       0x38 ./nxt-spi.o
 .comment       0x00000000       0x38 ./nxt-lcd.o
 .comment       0x00000000       0x38 ./nxt-display.o
 .comment       0x00000000       0x38 ./nxt-twi.o
 .comment       0x00000000       0x38 ./nxt-avr_io.o
 .comment       0x00000000       0x38 ./nxt-avr.o
 .comment       0x00000000       0x38 ./nxt-battery.o
 .comment       0x00000000       0x38 ./menus.o
 .comment       0x00000000       0x38 ./menu_tests.o
 .comment       0x00000000       0x38 ./menu_sounds.o
 .comment       0x00000000       0x38 ./menu_motors.o
 .comment       0x00000000       0x38 ./menu_bt.o
 .comment       0x00000000       0x38 ./tests.o
 .comment       0x00000000       0x38 /home/lego/Documents/gnatmindstorms2011/bin/../lib/gcc/arm-eabi/4.5.3/libgcc.a(bpabi.o)
 .comment       0x00000000       0x38 /home/lego/Documents/gnatmindstorms2011/bin/../lib/gcc/arm-eabi/4.5.3/libgcc.a(_divdi3.o)
 .comment       0x00000000       0x38 /home/lego/Documents/gnatmindstorms2011/bin/../lib/gcc/arm-eabi/4.5.3/libgcc.a(_udivdi3.o)

.ARM.attributes
                0x00000000       0x2e
 .ARM.attributes
                0x00000000       0x2e b~tests.o
 .ARM.attributes
                0x0000002e       0x14 vectors.o
 .ARM.attributes
                0x00000042       0x16 init.o
 .ARM.attributes
                0x00000058       0x30 main.o
 .ARM.attributes
                0x00000088       0x14 irq.o
 .ARM.attributes
                0x0000009c       0x16 context_switch-bb-arm.o
 .ARM.attributes
                0x000000b2       0x2e ./ada.o
 .ARM.attributes
                0x000000e0       0x2e ./interfac.o
 .ARM.attributes
                0x0000010e       0x2e ./i-c.o
 .ARM.attributes
                0x0000013c       0x2e ./system.o
 .ARM.attributes
                0x0000016a       0x2e ./a-except.o
 .ARM.attributes
                0x00000198       0x2e ./s-bb.o
 .ARM.attributes
                0x000001c6       0x2e ./s-maccod.o
 .ARM.attributes
                0x000001f4       0x2e ./s-parame.o
 .ARM.attributes
                0x00000222       0x2e ./s-stoele.o
 .ARM.attributes
                0x00000250       0x2e ./s-bbpara.o
 .ARM.attributes
                0x0000027e       0x2e ./s-bbpere.o
 .ARM.attributes
                0x000002ac       0x2e ./s-multip.o
 .ARM.attributes
                0x000002da       0x2e ./s-bcprmu.o
 .ARM.attributes
                0x00000308       0x2e ./s-bbperi.o
 .ARM.attributes
                0x00000336       0x2e ./s-bbthqu.o
 .ARM.attributes
                0x00000364       0x2e ./s-bbthre.o
 .ARM.attributes
                0x00000392       0x2e ./s-bbinte.o
 .ARM.attributes
                0x000003c0       0x2e ./s-bbtime.o
 .ARM.attributes
                0x000003ee       0x2e ./s-bbcppr.o
 .ARM.attributes
                0x0000041c       0x2e ./s-bbprot.o
 .ARM.attributes
                0x0000044a       0x2e ./s-musplo.o
 .ARM.attributes
                0x00000478       0x2e ./s-osinte.o
 .ARM.attributes
                0x000004a6       0x2e ./s-mufalo.o
 .ARM.attributes
                0x000004d4       0x2e ./s-tasinf.o
 .ARM.attributes
                0x00000502       0x2e ./s-taspri.o
 .ARM.attributes
                0x00000530       0x2e ./s-tasdeb.o
 .ARM.attributes
                0x0000055e       0x2e ./s-taprop.o
 .ARM.attributes
                0x0000058c       0x2e ./s-unstyp.o
 .ARM.attributes
                0x000005ba       0x2e ./a-reatim.o
 .ARM.attributes
                0x000005e8       0x2e ./a-retide.o
 .ARM.attributes
                0x00000616       0x2e ./s-taskin.o
 .ARM.attributes
                0x00000644       0x2e ./s-secsta.o
 .ARM.attributes
                0x00000672       0x2e ./s-taprob.o
 .ARM.attributes
                0x000006a0       0x2e ./s-tpobmu.o
 .ARM.attributes
                0x000006ce       0x2e ./s-tposen.o
 .ARM.attributes
                0x000006fc       0x2e ./s-interr.o
 .ARM.attributes
                0x0000072a       0x2e ./a-interr.o
 .ARM.attributes
                0x00000758       0x2e ./s-tasres.o
 .ARM.attributes
                0x00000786       0x2e ./s-tarest.o
 .ARM.attributes
                0x000007b4       0x2e ./memory_compare.o
 .ARM.attributes
                0x000007e2       0x2e ./memory_copy.o
 .ARM.attributes
                0x00000810       0x2e ./memory_set.o
 .ARM.attributes
                0x0000083e       0x2e ./nxt.o
 .ARM.attributes
                0x0000086c       0x2e ./nxt-registers.o
 .ARM.attributes
                0x0000089a       0x2e ./nxt-audio.o
 .ARM.attributes
                0x000008c8       0x2e ./nxt-bc4-messages.o
 .ARM.attributes
                0x000008f6       0x2e ./nxt-bc4.o
 .ARM.attributes
                0x00000924       0x2e ./nxt-bluetooth.o
 .ARM.attributes
                0x00000952       0x2e ./nxt-buffers.o
 .ARM.attributes
                0x00000980       0x2e ./nxt-bc4-io.o
 .ARM.attributes
                0x000009ae       0x2e ./nxt-filtering.o
 .ARM.attributes
                0x000009dc       0x2e ./nxt-last_chance.o
 .ARM.attributes
                0x00000a0a       0x2e ./nxt-fonts.o
 .ARM.attributes
                0x00000a38       0x2e ./nxt-motor_encoders.o
 .ARM.attributes
                0x00000a66       0x2e ./nxt-priorities.o
 .ARM.attributes
                0x00000a94       0x2e ./nxt-spi.o
 .ARM.attributes
                0x00000ac2       0x2e ./nxt-lcd.o
 .ARM.attributes
                0x00000af0       0x2e ./nxt-display.o
 .ARM.attributes
                0x00000b1e       0x2e ./nxt-twi.o
 .ARM.attributes
                0x00000b4c       0x2e ./nxt-avr_io.o
 .ARM.attributes
                0x00000b7a       0x2e ./nxt-avr.o
 .ARM.attributes
                0x00000ba8       0x2e ./nxt-battery.o
 .ARM.attributes
                0x00000bd6       0x2e ./menus.o
 .ARM.attributes
                0x00000c04       0x2e ./menu_tests.o
 .ARM.attributes
                0x00000c32       0x2e ./menu_sounds.o
 .ARM.attributes
                0x00000c60       0x2e ./menu_motors.o
 .ARM.attributes
                0x00000c8e       0x2e ./menu_bt.o
 .ARM.attributes
                0x00000cbc       0x2e ./tests.o
 .ARM.attributes
                0x00000cea       0x18 /home/lego/Documents/gnatmindstorms2011/bin/../lib/gcc/arm-eabi/4.5.3/libgcc.a(_udivsi3.o)
 .ARM.attributes
                0x00000d02       0x18 /home/lego/Documents/gnatmindstorms2011/bin/../lib/gcc/arm-eabi/4.5.3/libgcc.a(_divsi3.o)
 .ARM.attributes
                0x00000d1a       0x16 /home/lego/Documents/gnatmindstorms2011/bin/../lib/gcc/arm-eabi/4.5.3/libgcc.a(_dvmd_tls.o)
 .ARM.attributes
                0x00000d30       0x18 /home/lego/Documents/gnatmindstorms2011/bin/../lib/gcc/arm-eabi/4.5.3/libgcc.a(_arm_addsubsf3.o)
 .ARM.attributes
                0x00000d48       0x18 /home/lego/Documents/gnatmindstorms2011/bin/../lib/gcc/arm-eabi/4.5.3/libgcc.a(_arm_muldivsf3.o)
 .ARM.attributes
                0x00000d60       0x18 /home/lego/Documents/gnatmindstorms2011/bin/../lib/gcc/arm-eabi/4.5.3/libgcc.a(_aeabi_ldivmod.o)
 .ARM.attributes
                0x00000d78       0x18 /home/lego/Documents/gnatmindstorms2011/bin/../lib/gcc/arm-eabi/4.5.3/libgcc.a(_aeabi_uldivmod.o)
 .ARM.attributes
                0x00000d90       0x30 /home/lego/Documents/gnatmindstorms2011/bin/../lib/gcc/arm-eabi/4.5.3/libgcc.a(bpabi.o)
 .ARM.attributes
                0x00000dc0       0x30 /home/lego/Documents/gnatmindstorms2011/bin/../lib/gcc/arm-eabi/4.5.3/libgcc.a(_divdi3.o)
 .ARM.attributes
                0x00000df0       0x30 /home/lego/Documents/gnatmindstorms2011/bin/../lib/gcc/arm-eabi/4.5.3/libgcc.a(_udivdi3.o)
 .ARM.attributes
                0x00000e20       0x18 /home/lego/Documents/gnatmindstorms2011/bin/../lib/gcc/arm-eabi/4.5.3/libgcc.a(_clzsi2.o)

.debug_frame    0x00000000     0x26d8
 .debug_frame   0x00000000       0x44 b~tests.o
 .debug_frame   0x00000044       0x70 main.o
 .debug_frame   0x000000b4       0x30 ./i-c.o
 .debug_frame   0x000000e4       0x28 ./a-except.o
 .debug_frame   0x0000010c       0x30 ./s-maccod.o
 .debug_frame   0x0000013c       0x20 ./s-parame.o
 .debug_frame   0x0000015c       0x98 ./s-stoele.o
 .debug_frame   0x000001f4       0x40 ./s-bbpere.o
 .debug_frame   0x00000234       0x20 ./s-multip.o
 .debug_frame   0x00000254       0x50 ./s-bcprmu.o
 .debug_frame   0x000002a4       0x50 ./s-bbperi.o
 .debug_frame   0x000002f4      0x118 ./s-bbthqu.o
 .debug_frame   0x0000040c      0x168 ./s-bbthre.o
 .debug_frame   0x00000574       0xdc ./s-bbinte.o
 .debug_frame   0x00000650       0x98 ./s-bbtime.o
 .debug_frame   0x000006e8       0x60 ./s-bbcppr.o
 .debug_frame   0x00000748       0x58 ./s-bbprot.o
 .debug_frame   0x000007a0       0x60 ./s-musplo.o
 .debug_frame   0x00000800       0xcc ./s-mufalo.o
 .debug_frame   0x000008cc       0x20 ./s-taspri.o
 .debug_frame   0x000008ec       0x20 ./s-tasdeb.o
 .debug_frame   0x0000090c      0x18c ./s-taprop.o
 .debug_frame   0x00000a98       0x20 ./s-unstyp.o
 .debug_frame   0x00000ab8      0x278 ./a-reatim.o
 .debug_frame   0x00000d30       0x38 ./a-retide.o
 .debug_frame   0x00000d68       0xec ./s-taskin.o
 .debug_frame   0x00000e54       0x78 ./s-secsta.o
 .debug_frame   0x00000ecc       0x94 ./s-taprob.o
 .debug_frame   0x00000f60       0x70 ./s-tpobmu.o
 .debug_frame   0x00000fd0       0xc8 ./s-tposen.o
 .debug_frame   0x00001098       0xa0 ./s-interr.o
 .debug_frame   0x00001138       0xd4 ./a-interr.o
 .debug_frame   0x0000120c       0xec ./s-tarest.o
 .debug_frame   0x000012f8       0x28 ./memory_compare.o
 .debug_frame   0x00001320       0x40 ./memory_copy.o
 .debug_frame   0x00001360       0x28 ./memory_set.o
 .debug_frame   0x00001388      0x1a8 ./nxt-audio.o
 .debug_frame   0x00001530       0xf8 ./nxt-bc4.o
 .debug_frame   0x00001628      0x210 ./nxt-bluetooth.o
 .debug_frame   0x00001838       0x64 ./nxt-bc4-io.o
 .debug_frame   0x0000189c       0x2c ./nxt-last_chance.o
 .debug_frame   0x000018c8       0x88 ./nxt-motor_encoders.o
 .debug_frame   0x00001950       0xac ./nxt-spi.o
 .debug_frame   0x000019fc       0x94 ./nxt-lcd.o
 .debug_frame   0x00001a90      0x210 ./nxt-display.o
 .debug_frame   0x00001ca0       0xec ./nxt-twi.o
 .debug_frame   0x00001d8c      0x190 ./nxt-avr_io.o
 .debug_frame   0x00001f1c      0x1ac ./nxt-avr.o
 .debug_frame   0x000020c8       0x48 ./nxt-battery.o
 .debug_frame   0x00002110       0xa0 ./menus.o
 .debug_frame   0x000021b0       0x80 ./menu_tests.o
 .debug_frame   0x00002230       0x30 ./menu_sounds.o
 .debug_frame   0x00002260       0xf4 ./menu_motors.o
 .debug_frame   0x00002354      0x250 ./menu_bt.o
 .debug_frame   0x000025a4       0x2c ./tests.o
 .debug_frame   0x000025d0       0x20 /home/lego/Documents/gnatmindstorms2011/bin/../lib/gcc/arm-eabi/4.5.3/libgcc.a(_udivsi3.o)
 .debug_frame   0x000025f0       0x20 /home/lego/Documents/gnatmindstorms2011/bin/../lib/gcc/arm-eabi/4.5.3/libgcc.a(_divsi3.o)
 .debug_frame   0x00002610       0x50 /home/lego/Documents/gnatmindstorms2011/bin/../lib/gcc/arm-eabi/4.5.3/libgcc.a(bpabi.o)
 .debug_frame   0x00002660       0x3c /home/lego/Documents/gnatmindstorms2011/bin/../lib/gcc/arm-eabi/4.5.3/libgcc.a(_divdi3.o)
 .debug_frame   0x0000269c       0x3c /home/lego/Documents/gnatmindstorms2011/bin/../lib/gcc/arm-eabi/4.5.3/libgcc.a(_udivdi3.o)

.debug_ranges   0x00000000      0x710
 .debug_ranges  0x00000000       0x18 ./s-bbthqu.o
 .debug_ranges  0x00000018       0x30 ./s-bbinte.o
 .debug_ranges  0x00000048       0x18 ./s-taprop.o
 .debug_ranges  0x00000060       0x60 ./s-taskin.o
 .debug_ranges  0x000000c0       0x18 ./s-tposen.o
 .debug_ranges  0x000000d8       0x18 ./memory_compare.o
 .debug_ranges  0x000000f0      0x130 ./nxt-audio.o
 .debug_ranges  0x00000220       0x18 ./nxt-bc4.o
 .debug_ranges  0x00000238       0xa0 ./nxt-bluetooth.o
 .debug_ranges  0x000002d8       0x30 ./nxt-motor_encoders.o
 .debug_ranges  0x00000308       0x60 ./nxt-spi.o
 .debug_ranges  0x00000368       0x50 ./nxt-lcd.o
 .debug_ranges  0x000003b8       0x78 ./nxt-display.o
 .debug_ranges  0x00000430       0x60 ./nxt-twi.o
 .debug_ranges  0x00000490       0x18 ./nxt-avr_io.o
 .debug_ranges  0x000004a8       0x18 ./menu_motors.o
 .debug_ranges  0x000004c0       0xf0 ./menu_bt.o
 .debug_ranges  0x000005b0       0xa8 /home/lego/Documents/gnatmindstorms2011/bin/../lib/gcc/arm-eabi/4.5.3/libgcc.a(_divdi3.o)
 .debug_ranges  0x00000658       0xb8 /home/lego/Documents/gnatmindstorms2011/bin/../lib/gcc/arm-eabi/4.5.3/libgcc.a(_udivdi3.o)

Cross Reference Table

Symbol                                            File
__addsf3                                          /home/lego/Documents/gnatmindstorms2011/bin/../lib/gcc/arm-eabi/4.5.3/libgcc.a(_arm_addsubsf3.o)
__aeabi_fadd                                      /home/lego/Documents/gnatmindstorms2011/bin/../lib/gcc/arm-eabi/4.5.3/libgcc.a(_arm_addsubsf3.o)
__aeabi_fdiv                                      /home/lego/Documents/gnatmindstorms2011/bin/../lib/gcc/arm-eabi/4.5.3/libgcc.a(_arm_muldivsf3.o)
__aeabi_fmul                                      /home/lego/Documents/gnatmindstorms2011/bin/../lib/gcc/arm-eabi/4.5.3/libgcc.a(_arm_muldivsf3.o)
                                                  ./nxt-battery.o
__aeabi_frsub                                     /home/lego/Documents/gnatmindstorms2011/bin/../lib/gcc/arm-eabi/4.5.3/libgcc.a(_arm_addsubsf3.o)
__aeabi_fsub                                      /home/lego/Documents/gnatmindstorms2011/bin/../lib/gcc/arm-eabi/4.5.3/libgcc.a(_arm_addsubsf3.o)
__aeabi_i2f                                       /home/lego/Documents/gnatmindstorms2011/bin/../lib/gcc/arm-eabi/4.5.3/libgcc.a(_arm_addsubsf3.o)
__aeabi_idiv                                      /home/lego/Documents/gnatmindstorms2011/bin/../lib/gcc/arm-eabi/4.5.3/libgcc.a(_divsi3.o)
                                                  ./nxt-display.o
                                                  ./nxt-audio.o
__aeabi_idiv0                                     /home/lego/Documents/gnatmindstorms2011/bin/../lib/gcc/arm-eabi/4.5.3/libgcc.a(_dvmd_tls.o)
                                                  /home/lego/Documents/gnatmindstorms2011/bin/../lib/gcc/arm-eabi/4.5.3/libgcc.a(_divsi3.o)
                                                  /home/lego/Documents/gnatmindstorms2011/bin/../lib/gcc/arm-eabi/4.5.3/libgcc.a(_udivsi3.o)
__aeabi_idivmod                                   /home/lego/Documents/gnatmindstorms2011/bin/../lib/gcc/arm-eabi/4.5.3/libgcc.a(_divsi3.o)
                                                  ./nxt-avr.o
                                                  ./nxt-audio.o
__aeabi_l2f                                       /home/lego/Documents/gnatmindstorms2011/bin/../lib/gcc/arm-eabi/4.5.3/libgcc.a(_arm_addsubsf3.o)
__aeabi_ldiv0                                     /home/lego/Documents/gnatmindstorms2011/bin/../lib/gcc/arm-eabi/4.5.3/libgcc.a(_dvmd_tls.o)
                                                  /home/lego/Documents/gnatmindstorms2011/bin/../lib/gcc/arm-eabi/4.5.3/libgcc.a(_aeabi_uldivmod.o)
                                                  /home/lego/Documents/gnatmindstorms2011/bin/../lib/gcc/arm-eabi/4.5.3/libgcc.a(_aeabi_ldivmod.o)
__aeabi_ldivmod                                   /home/lego/Documents/gnatmindstorms2011/bin/../lib/gcc/arm-eabi/4.5.3/libgcc.a(_aeabi_ldivmod.o)
                                                  ./nxt-display.o
                                                  ./a-reatim.o
__aeabi_ui2f                                      /home/lego/Documents/gnatmindstorms2011/bin/../lib/gcc/arm-eabi/4.5.3/libgcc.a(_arm_addsubsf3.o)
                                                  ./nxt-battery.o
__aeabi_uidiv                                     /home/lego/Documents/gnatmindstorms2011/bin/../lib/gcc/arm-eabi/4.5.3/libgcc.a(_udivsi3.o)
                                                  /home/lego/Documents/gnatmindstorms2011/bin/../lib/gcc/arm-eabi/4.5.3/libgcc.a(_udivdi3.o)
                                                  /home/lego/Documents/gnatmindstorms2011/bin/../lib/gcc/arm-eabi/4.5.3/libgcc.a(_divdi3.o)
                                                  ./nxt-audio.o
                                                  ./a-reatim.o
__aeabi_uidivmod                                  /home/lego/Documents/gnatmindstorms2011/bin/../lib/gcc/arm-eabi/4.5.3/libgcc.a(_udivsi3.o)
                                                  /home/lego/Documents/gnatmindstorms2011/bin/../lib/gcc/arm-eabi/4.5.3/libgcc.a(_udivdi3.o)
                                                  /home/lego/Documents/gnatmindstorms2011/bin/../lib/gcc/arm-eabi/4.5.3/libgcc.a(_divdi3.o)
                                                  ./s-stoele.o
__aeabi_ul2f                                      /home/lego/Documents/gnatmindstorms2011/bin/../lib/gcc/arm-eabi/4.5.3/libgcc.a(_arm_addsubsf3.o)
__aeabi_uldivmod                                  /home/lego/Documents/gnatmindstorms2011/bin/../lib/gcc/arm-eabi/4.5.3/libgcc.a(_aeabi_uldivmod.o)
                                                  ./a-reatim.o
__aeabi_unwind_cpp_pr0                            main.o
                                                  /home/lego/Documents/gnatmindstorms2011/bin/../lib/gcc/arm-eabi/4.5.3/libgcc.a(_udivdi3.o)
                                                  /home/lego/Documents/gnatmindstorms2011/bin/../lib/gcc/arm-eabi/4.5.3/libgcc.a(_divdi3.o)
                                                  /home/lego/Documents/gnatmindstorms2011/bin/../lib/gcc/arm-eabi/4.5.3/libgcc.a(bpabi.o)
__bss_end__                                       init.o
__bss_start__                                     init.o
__clzsi2                                          /home/lego/Documents/gnatmindstorms2011/bin/../lib/gcc/arm-eabi/4.5.3/libgcc.a(_clzsi2.o)
                                                  /home/lego/Documents/gnatmindstorms2011/bin/../lib/gcc/arm-eabi/4.5.3/libgcc.a(_udivdi3.o)
                                                  /home/lego/Documents/gnatmindstorms2011/bin/../lib/gcc/arm-eabi/4.5.3/libgcc.a(_divdi3.o)
__data_load_end__                                 init.o
__data_load_start__                               init.o
__data_ram_start__                                init.o
__divdi3                                          /home/lego/Documents/gnatmindstorms2011/bin/../lib/gcc/arm-eabi/4.5.3/libgcc.a(_divdi3.o)
                                                  /home/lego/Documents/gnatmindstorms2011/bin/../lib/gcc/arm-eabi/4.5.3/libgcc.a(bpabi.o)
__divsf3                                          /home/lego/Documents/gnatmindstorms2011/bin/../lib/gcc/arm-eabi/4.5.3/libgcc.a(_arm_muldivsf3.o)
__divsi3                                          /home/lego/Documents/gnatmindstorms2011/bin/../lib/gcc/arm-eabi/4.5.3/libgcc.a(_divsi3.o)
__floatdisf                                       /home/lego/Documents/gnatmindstorms2011/bin/../lib/gcc/arm-eabi/4.5.3/libgcc.a(_arm_addsubsf3.o)
__floatsisf                                       /home/lego/Documents/gnatmindstorms2011/bin/../lib/gcc/arm-eabi/4.5.3/libgcc.a(_arm_addsubsf3.o)
__floatundisf                                     /home/lego/Documents/gnatmindstorms2011/bin/../lib/gcc/arm-eabi/4.5.3/libgcc.a(_arm_addsubsf3.o)
__floatunsisf                                     /home/lego/Documents/gnatmindstorms2011/bin/../lib/gcc/arm-eabi/4.5.3/libgcc.a(_arm_addsubsf3.o)
__gl_main_cpu                                     ./s-taskin.o
__gl_main_priority                                ./s-taskin.o
__gnarl_disable_execution_time                    ./s-bbprot.o
__gnarl_scheduling_event                          ./s-bbprot.o
__gnat_ada_main_program_name                      b~tests.o
__gnat_get_secondary_stack                        ./s-taskin.o
                                                  ./s-secsta.o
__gnat_initialize_slave                           ./s-taskin.o
__gnat_last_chance_handler                        ./nxt-last_chance.o
                                                  main.o
                                                  ./menu_bt.o
                                                  ./menu_motors.o
                                                  ./menu_sounds.o
                                                  ./menu_tests.o
                                                  ./menus.o
                                                  ./nxt-avr.o
                                                  ./nxt-avr_io.o
                                                  ./nxt-twi.o
                                                  ./nxt-display.o
                                                  ./nxt-bc4-io.o
                                                  ./nxt-bluetooth.o
                                                  ./nxt-bc4.o
                                                  ./nxt-audio.o
                                                  ./memory_set.o
                                                  ./memory_copy.o
                                                  ./memory_compare.o
                                                  ./s-tarest.o
                                                  ./a-interr.o
                                                  ./s-tposen.o
                                                  ./s-taprob.o
                                                  ./s-secsta.o
                                                  ./s-taskin.o
                                                  ./a-retide.o
                                                  ./a-reatim.o
                                                  ./s-stoele.o
                                                  ./a-except.o
__gnat_running_thread_table                       ./s-bbthqu.o
                                                  ./s-bbthre.o
                                                  context_switch-bb-arm.o
__gnat_version                                    b~tests.o
__gnu_ldivmod_helper                              /home/lego/Documents/gnatmindstorms2011/bin/../lib/gcc/arm-eabi/4.5.3/libgcc.a(bpabi.o)
                                                  /home/lego/Documents/gnatmindstorms2011/bin/../lib/gcc/arm-eabi/4.5.3/libgcc.a(_aeabi_ldivmod.o)
__gnu_uldivmod_helper                             /home/lego/Documents/gnatmindstorms2011/bin/../lib/gcc/arm-eabi/4.5.3/libgcc.a(bpabi.o)
                                                  /home/lego/Documents/gnatmindstorms2011/bin/../lib/gcc/arm-eabi/4.5.3/libgcc.a(_aeabi_uldivmod.o)
__irq_stack__                                     irq.o
                                                  init.o
__mulsf3                                          /home/lego/Documents/gnatmindstorms2011/bin/../lib/gcc/arm-eabi/4.5.3/libgcc.a(_arm_muldivsf3.o)
__ramtext_load_end__                              init.o
__ramtext_load_start__                            init.o
__ramtext_ram_start__                             init.o
__stack_bottom                                    ./s-bbthre.o
__stack_end__                                     init.o
__stack_start__                                   init.o
__stack_top                                       ./s-bbthre.o
__subsf3                                          /home/lego/Documents/gnatmindstorms2011/bin/../lib/gcc/arm-eabi/4.5.3/libgcc.a(_arm_addsubsf3.o)
__system_stack__                                  init.o
__udivdi3                                         /home/lego/Documents/gnatmindstorms2011/bin/../lib/gcc/arm-eabi/4.5.3/libgcc.a(_udivdi3.o)
                                                  /home/lego/Documents/gnatmindstorms2011/bin/../lib/gcc/arm-eabi/4.5.3/libgcc.a(bpabi.o)
__udivsi3                                         /home/lego/Documents/gnatmindstorms2011/bin/../lib/gcc/arm-eabi/4.5.3/libgcc.a(_udivsi3.o)
__vectors_load_end__                              init.o
__vectors_load_start__                            init.o
__vectors_ram_start__                             init.o
_ada_tests                                        ./tests.o
                                                  b~tests.o
adaS                                              b~tests.o
ada_E                                             ./ada.o
ada__exceptionsB                                  b~tests.o
ada__exceptionsS                                  b~tests.o
ada__exceptions_E                                 ./a-except.o
ada__exceptions__null_id                          ./a-except.o
ada__exceptions__raise_exception                  ./a-except.o
ada__interruptsB                                  b~tests.o
ada__interruptsS                                  b~tests.o
ada__interrupts_E                                 ./a-interr.o
ada__interrupts__E3sIP                            ./a-interr.o
ada__interrupts__attach_handler                   ./a-interr.o
ada__interrupts__current_handler                  ./a-interr.o
ada__interrupts__detach_handler                   ./a-interr.o
ada__interrupts__exchange_handler                 ./a-interr.o
ada__interrupts__is_attached                      ./a-interr.o
ada__interrupts__is_reserved                      ./a-interr.o
ada__interrupts__reference                        ./a-interr.o
ada__real_timeB                                   b~tests.o
ada__real_timeS                                   b~tests.o
ada__real_time_E                                  ./a-reatim.o
                                                  b~tests.o
ada__real_time__Oadd                              ./a-reatim.o
                                                  ./tests.o
                                                  ./menu_bt.o
                                                  ./menu_sounds.o
                                                  ./menu_tests.o
                                                  ./menus.o
                                                  ./nxt-avr.o
                                                  ./nxt-lcd.o
                                                  ./nxt-bluetooth.o
                                                  ./nxt-bc4.o
ada__real_time__Oadd__2                           ./a-reatim.o
ada__real_time__Oadd__3                           ./a-reatim.o
                                                  ./nxt-avr.o
ada__real_time__Odivide                           ./a-reatim.o
ada__real_time__Odivide__2                        ./a-reatim.o
ada__real_time__Omultiply                         ./a-reatim.o
ada__real_time__Omultiply__2                      ./a-reatim.o
                                                  ./nxt-avr.o
ada__real_time__Osubtract                         ./a-reatim.o
ada__real_time__Osubtract__2                      ./a-reatim.o
ada__real_time__Osubtract__3                      ./a-reatim.o
ada__real_time__Osubtract__4                      ./a-reatim.o
ada__real_time___elabb                            ./a-reatim.o
                                                  b~tests.o
ada__real_time___elabs                            ./a-reatim.o
                                                  b~tests.o
ada__real_time__clock                             ./a-reatim.o
                                                  ./tests.o
                                                  ./menu_bt.o
                                                  ./menu_sounds.o
                                                  ./menu_tests.o
                                                  ./menus.o
                                                  ./nxt-avr.o
                                                  ./nxt-lcd.o
                                                  ./nxt-bluetooth.o
                                                  ./nxt-bc4.o
ada__real_time__delaysB                           b~tests.o
ada__real_time__delaysS                           b~tests.o
ada__real_time__delays_E                          ./a-retide.o
ada__real_time__delays__delay_until               ./a-retide.o
                                                  ./tests.o
                                                  ./menu_bt.o
                                                  ./menu_sounds.o
                                                  ./menu_tests.o
                                                  ./menus.o
                                                  ./nxt-avr.o
                                                  ./nxt-lcd.o
                                                  ./nxt-bluetooth.o
                                                  ./nxt-bc4.o
ada__real_time__delays__to_duration               ./a-retide.o
ada__real_time__microseconds                      ./a-reatim.o
ada__real_time__milliseconds                      ./a-reatim.o
                                                  ./tests.o
                                                  ./menu_bt.o
                                                  ./menu_sounds.o
                                                  ./menu_tests.o
                                                  ./menus.o
                                                  ./nxt-avr.o
                                                  ./nxt-lcd.o
                                                  ./nxt-bluetooth.o
                                                  ./nxt-bc4.o
ada__real_time__minutes                           ./a-reatim.o
ada__real_time__nanoseconds                       ./a-reatim.o
ada__real_time__seconds                           ./a-reatim.o
                                                  ./tests.o
ada__real_time__split                             ./a-reatim.o
ada__real_time__tick                              ./a-reatim.o
ada__real_time__time_first                        ./a-reatim.o
ada__real_time__time_last                         ./a-reatim.o
ada__real_time__time_of                           ./a-reatim.o
ada__real_time__time_span_first                   ./a-reatim.o
ada__real_time__time_span_last                    ./a-reatim.o
ada__real_time__time_span_unit                    ./a-reatim.o
ada__real_time__time_span_zero                    ./a-reatim.o
ada__real_time__time_unit                         ./a-reatim.o
ada__real_time__to_duration                       ./a-reatim.o
ada__real_time__to_time_span                      ./a-reatim.o
ada_main_E                                        b~tests.o
adainit                                           b~tests.o
context_switch                                    context_switch-bb-arm.o
                                                  ./s-bbprot.o
                                                  ./s-bbinte.o
context_switch_needed                             ./s-bbprot.o
                                                  ./s-bbinte.o
data_abort_C                                      main.o
                                                  init.o
data_abort_handler                                init.o
                                                  vectors.o
data_abort_pc                                     main.o
                                                  init.o
first_thread_table                                ./s-bbthqu.o
                                                  ./s-bbthre.o
                                                  context_switch-bb-arm.o
interfaces(char, signed)                          b~tests.o
interfacesS                                       b~tests.o
interfaces_E                                      ./interfac.o
interfaces__c_E                                   ./i-c.o
interfaces__c__char_arrayIP                       ./i-c.o
interfaces__c__nul                                ./i-c.o
interfaces__c__wchar_arrayIP                      ./i-c.o
interfaces__c__wide_nul                           ./i-c.o
irq_handler                                       irq.o
                                                  vectors.o
irq_handler_ada                                   ./s-bbinte.o
                                                  irq.o
main                                              b~tests.o
                                                  main.o
memcmp                                            ./memory_compare.o
                                                  ./s-tarest.o
memcpy                                            ./memory_copy.o
                                                  ./menu_bt.o
                                                  ./nxt-avr.o
                                                  ./nxt-avr_io.o
                                                  ./nxt-display.o
                                                  ./nxt-bluetooth.o
memmove                                           ./memory_copy.o
                                                  ./menu_bt.o
                                                  ./nxt-bluetooth.o
memory_compareB                                   b~tests.o
memory_compareS                                   b~tests.o
memory_compare_E                                  ./memory_compare.o
memory_copyB                                      b~tests.o
memory_copyS                                      b~tests.o
memory_copy_E                                     ./memory_copy.o
memory_setB                                       b~tests.o
memory_setS                                       b~tests.o
memory_set_E                                      ./memory_set.o
memset                                            ./memory_set.o
                                                  ./nxt-avr.o
menu_btB                                          b~tests.o
menu_btS                                          b~tests.o
menu_bt_E                                         ./menu_bt.o
                                                  b~tests.o
menu_bt__do_menu_bt                               ./menu_bt.o
                                                  ./menu_tests.o
menu_motorsB                                      b~tests.o
menu_motorsS                                      b~tests.o
menu_motors_E                                     ./menu_motors.o
                                                  b~tests.o
menu_motors__Tspeed_arrayBIP                      ./menu_motors.o
menu_motors__do_menu_motors                       ./menu_motors.o
                                                  ./menu_tests.o
menu_soundsB                                      b~tests.o
menu_soundsS                                      b~tests.o
menu_sounds_E                                     ./menu_sounds.o
                                                  b~tests.o
menu_sounds__do_menu_sounds                       ./menu_sounds.o
                                                  ./menu_tests.o
menu_testsB                                       b~tests.o
menu_testsS                                       b~tests.o
menu_tests_E                                      ./menu_tests.o
                                                  b~tests.o
menu_tests__do_menu_tests                         ./menu_tests.o
                                                  ./tests.o
menusB                                            b~tests.o
menusS                                            b~tests.o
menus_E                                           ./menus.o
                                                  b~tests.o
menus__menuIP                                     ./menus.o
menus__menu_entryIP                               ./menus.o
menus__play_menu                                  ./menus.o
                                                  ./menu_bt.o
                                                  ./menu_motors.o
                                                  ./menu_tests.o
menus__pressed_key                                ./menus.o
                                                  ./menu_bt.o
menus__wait_key                                   ./menus.o
                                                  ./menu_bt.o
                                                  ./menu_motors.o
menus__wait_ms                                    ./menus.o
                                                  ./menu_bt.o
                                                  ./menu_motors.o
nxt(bool, char, __in, double,...)(long long)      ./nxt-bc4.o
nxt(bool, char, __io, signed)                     b~tests.o
nxt(bool, char, __re, char,...)(int, void,...)    ./nxt-bc4.o
                                                  ./nxt-bc4-io.o
nxt(bool, float __restrict, float,...)(long double, short, signed) b~tests.o
nxt(long, char, double, signed)                   b~tests.o
nxt(short, int *, signed)                         b~tests.o
nxtS                                              b~tests.o
nxt_E                                             ./nxt.o
nxt__audioB                                       b~tests.o
nxt__audioS                                       b~tests.o
nxt__audio_E                                      ./nxt-audio.o
                                                  b~tests.o
nxt__audio__TamplificationBIP                     ./nxt-audio.o
nxt__audio__Tdouble_bufferBIP                     ./nxt-audio.o
nxt__audio__Tsample_bufferBIP                     ./nxt-audio.o
nxt__audio__Tsound_sampleBIP                      ./nxt-audio.o
nxt__audio___elabb                                ./nxt-audio.o
                                                  b~tests.o
nxt__audio__generatorTVIP                         ./nxt-audio.o
nxt__audio__mute                                  ./nxt-audio.o
nxt__audio__play_sample                           ./nxt-audio.o
nxt__audio__play_tone                             ./nxt-audio.o
                                                  ./menu_sounds.o
                                                  ./nxt-last_chance.o
nxt__audio__time_remaining                        ./nxt-audio.o
nxt__audio__unmute                                ./nxt-audio.o
nxt__audio__waveformIP                            ./nxt-audio.o
nxt__avrB                                         b~tests.o
nxt__avrS                                         b~tests.o
nxt__avr_E                                        ./nxt-avr.o
                                                  b~tests.o
nxt__avr___elabb                                  ./nxt-avr.o
                                                  b~tests.o
nxt__avr__await_data_available                    ./nxt-avr.o
nxt__avr__button                                  ./nxt-avr.o
                                                  ./tests.o
                                                  ./menu_bt.o
                                                  ./menu_motors.o
                                                  ./menu_tests.o
                                                  ./menus.o
nxt__avr__button_inputs__filterIPXn               ./nxt-avr.o
nxt__avr__button_inputs__filteredXn               ./nxt-avr.o
nxt__avr__button_inputs__no_valueXn               ./nxt-avr.o
nxt__avr__outgoing_messages__bufferIPXn           ./nxt-avr.o
nxt__avr__outgoing_messages__clearXn              ./nxt-avr.o
nxt__avr__outgoing_messages__contentIPXn          ./nxt-avr.o
nxt__avr__outgoing_messages__emptyXn              ./nxt-avr.o
nxt__avr__outgoing_messages__extentXn             ./nxt-avr.o
nxt__avr__outgoing_messages__fullXn               ./nxt-avr.o
nxt__avr__outgoing_messages__insertXn             ./nxt-avr.o
nxt__avr__outgoing_messages__removeXn             ./nxt-avr.o
nxt__avr__power_down                              ./nxt-avr.o
                                                  ./tests.o
                                                  ./menu_tests.o
nxt__avr__pumpTKVIP                               ./nxt-avr.o
nxt__avr__raw_battery                             ./nxt-avr.o
                                                  ./nxt-battery.o
nxt__avr__raw_input                               ./nxt-avr.o
                                                  ./menu_tests.o
nxt__avr__set_input_power                         ./nxt-avr.o
nxt__avr__set_power                               ./nxt-avr.o
                                                  ./menu_motors.o
nxt__avr_ioB                                      b~tests.o
nxt__avr_ioS                                      b~tests.o
nxt__avr_io_E                                     ./nxt-avr_io.o
                                                  b~tests.o
nxt__avr_io__Tincoming_message_as_bytesBIP        ./nxt-avr_io.o
nxt__avr_io__Tmotor_braking_modesBIP              ./nxt-avr_io.o
nxt__avr_io__Toutgoing_message_as_bytesBIP        ./nxt-avr_io.o
nxt__avr_io__Tport_bitsBIP                        ./nxt-avr_io.o
nxt__avr_io__Tpwm_output_valuesBIP                ./nxt-avr_io.o
nxt__avr_io__Traw_adc_inputsBIP                   ./nxt-avr_io.o
nxt__avr_io__avr_address                          ./nxt-avr_io.o
nxt__avr_io__avr_string                           ./nxt-avr_io.o
nxt__avr_io__battery_reading                      ./nxt-avr_io.o
nxt__avr_io__current_input_power                  ./nxt-avr_io.o
nxt__avr_io__current_output_modes                 ./nxt-avr_io.o
nxt__avr_io__current_power_settings               ./nxt-avr_io.o
nxt__avr_io__decoded_button                       ./nxt-avr_io.o
                                                  ./nxt-avr.o
nxt__avr_io__incoming_avr_messageIP               ./nxt-avr_io.o
nxt__avr_io__null_outgoing_msg                    ./nxt-avr_io.o
nxt__avr_io__outgoing_avr_messageIP               ./nxt-avr_io.o
nxt__avr_io__power_down_message                   ./nxt-avr_io.o
                                                  ./nxt-avr.o
nxt__avr_io__raw_inputs                           ./nxt-avr_io.o
nxt__avr_io__receive_from_avr                     ./nxt-avr_io.o
                                                  ./nxt-avr.o
nxt__avr_io__send_initialization                  ./nxt-avr_io.o
                                                  ./nxt-avr.o
nxt__avr_io__send_to_avr                          ./nxt-avr_io.o
                                                  ./nxt-avr.o
nxt__avr_io__sensor_power_controlIP               ./nxt-avr_io.o
nxt__avr_io__set_motor_message                    ./nxt-avr_io.o
                                                  ./nxt-avr.o
nxt__avr_io__set_sensor_power_message             ./nxt-avr_io.o
                                                  ./nxt-avr.o
nxt__batteryB                                     b~tests.o
nxt__batteryS                                     b~tests.o
nxt__battery_E                                    ./nxt-battery.o
                                                  b~tests.o
nxt__battery__millivolts                          ./nxt-battery.o
                                                  ./menu_tests.o
nxt__battery__rechargeable                        ./nxt-battery.o
nxt__battery__volts                               ./nxt-battery.o
nxt__bc4B                                         b~tests.o
nxt__bc4S                                         b~tests.o
nxt__bc4_E                                        ./nxt-bc4.o
                                                  b~tests.o
nxt__bc4__TbufferBIP                              ./nxt-bc4.o
nxt__bc4__Tdouble_bufferBIP                       ./nxt-bc4.o
nxt__bc4___elabb                                  ./nxt-bc4.o
                                                  b~tests.o
nxt__bc4__buf_ptr                                 ./nxt-bc4.o
nxt__bc4__current_buffer                          ./nxt-bc4.o
nxt__bc4__current_mode                            ./nxt-bc4.o
nxt__bc4__enter_command_mode                      ./nxt-bc4.o
                                                  ./menu_bt.o
nxt__bc4__enter_data_mode                         ./nxt-bc4.o
                                                  ./menu_bt.o
                                                  ./nxt-bluetooth.o
nxt__bc4__incoming                                ./nxt-bc4.o
nxt__bc4__initialize_device                       ./nxt-bc4.o
                                                  ./nxt-bluetooth.o
nxt__bc4__ioB                                     b~tests.o
nxt__bc4__io_E                                    ./nxt-bc4-io.o
                                                  b~tests.o
nxt__bc4__io__packetIP                            ./nxt-bc4-io.o
nxt__bc4__io__receive_packet                      ./nxt-bc4-io.o
                                                  ./menu_bt.o
                                                  ./nxt-bluetooth.o
nxt__bc4__io__send_packet                         ./nxt-bc4-io.o
                                                  ./menu_bt.o
                                                  ./nxt-bluetooth.o
nxt__bc4__messagesS                               b~tests.o
nxt__bc4__messages_E                              ./nxt-bc4-messages.o
nxt__bc4__messages__dont_break_stream_mode        ./nxt-bc4-messages.o
nxt__bc4__messages__msg_accept_connection         ./nxt-bc4-messages.o
nxt__bc4__messages__msg_add_device                ./nxt-bc4-messages.o
nxt__bc4__messages__msg_begin_inquiry             ./nxt-bc4-messages.o
nxt__bc4__messages__msg_cancel_inquiry            ./nxt-bc4-messages.o
nxt__bc4__messages__msg_close_connection          ./nxt-bc4-messages.o
nxt__bc4__messages__msg_close_connection_result   ./nxt-bc4-messages.o
nxt__bc4__messages__msg_close_port                ./nxt-bc4-messages.o
nxt__bc4__messages__msg_close_port_result         ./nxt-bc4-messages.o
nxt__bc4__messages__msg_connect                   ./nxt-bc4-messages.o
nxt__bc4__messages__msg_connect_result            ./nxt-bc4-messages.o
nxt__bc4__messages__msg_connection_status_result  ./nxt-bc4-messages.o
nxt__bc4__messages__msg_discoverable_ack          ./nxt-bc4-messages.o
nxt__bc4__messages__msg_dump_list                 ./nxt-bc4-messages.o
nxt__bc4__messages__msg_get_brick_statusbyte      ./nxt-bc4-messages.o
nxt__bc4__messages__msg_get_brick_statusbyte_result ./nxt-bc4-messages.o
nxt__bc4__messages__msg_get_connection_status     ./nxt-bc4-messages.o
nxt__bc4__messages__msg_get_discoverable          ./nxt-bc4-messages.o
nxt__bc4__messages__msg_get_discoverable_result   ./nxt-bc4-messages.o
nxt__bc4__messages__msg_get_friendly_name         ./nxt-bc4-messages.o
nxt__bc4__messages__msg_get_friendly_name_result  ./nxt-bc4-messages.o
nxt__bc4__messages__msg_get_link_quality          ./nxt-bc4-messages.o
nxt__bc4__messages__msg_get_local_addr            ./nxt-bc4-messages.o
nxt__bc4__messages__msg_get_local_addr_result     ./nxt-bc4-messages.o
nxt__bc4__messages__msg_get_operating_mode        ./nxt-bc4-messages.o
nxt__bc4__messages__msg_get_port_open             ./nxt-bc4-messages.o
nxt__bc4__messages__msg_get_port_open_result      ./nxt-bc4-messages.o
nxt__bc4__messages__msg_get_version               ./nxt-bc4-messages.o
nxt__bc4__messages__msg_get_version_result        ./nxt-bc4-messages.o
nxt__bc4__messages__msg_goto_dfumode              ./nxt-bc4-messages.o
nxt__bc4__messages__msg_heartbeat                 ./nxt-bc4-messages.o
nxt__bc4__messages__msg_inquiry_result            ./nxt-bc4-messages.o
nxt__bc4__messages__msg_inquiry_running           ./nxt-bc4-messages.o
nxt__bc4__messages__msg_inquiry_stopped           ./nxt-bc4-messages.o
nxt__bc4__messages__msg_link_quality_result       ./nxt-bc4-messages.o
nxt__bc4__messages__msg_list_dump_stopped         ./nxt-bc4-messages.o
nxt__bc4__messages__msg_list_item                 ./nxt-bc4-messages.o
nxt__bc4__messages__msg_list_result               ./nxt-bc4-messages.o
nxt__bc4__messages__msg_lookup_name               ./nxt-bc4-messages.o
nxt__bc4__messages__msg_lookup_name_failure       ./nxt-bc4-messages.o
nxt__bc4__messages__msg_lookup_name_result        ./nxt-bc4-messages.o
nxt__bc4__messages__msg_open_port                 ./nxt-bc4-messages.o
nxt__bc4__messages__msg_open_stream               ./nxt-bc4-messages.o
nxt__bc4__messages__msg_pin_code                  ./nxt-bc4-messages.o
nxt__bc4__messages__msg_pin_code_ack              ./nxt-bc4-messages.o
nxt__bc4__messages__msg_port_open_result          ./nxt-bc4-messages.o
nxt__bc4__messages__msg_remove_device             ./nxt-bc4-messages.o
nxt__bc4__messages__msg_request_connection        ./nxt-bc4-messages.o
nxt__bc4__messages__msg_request_pin_code          ./nxt-bc4-messages.o
nxt__bc4__messages__msg_reset_indication          ./nxt-bc4-messages.o
nxt__bc4__messages__msg_set_brick_statusbyte      ./nxt-bc4-messages.o
nxt__bc4__messages__msg_set_brick_statusbyte_result ./nxt-bc4-messages.o
nxt__bc4__messages__msg_set_discoverable          ./nxt-bc4-messages.o
nxt__bc4__messages__msg_set_factory_settings      ./nxt-bc4-messages.o
nxt__bc4__messages__msg_set_factory_settings_ack  ./nxt-bc4-messages.o
nxt__bc4__messages__msg_set_friendly_name         ./nxt-bc4-messages.o
nxt__bc4__messages__msg_set_friendly_name_ack     ./nxt-bc4-messages.o
nxt__bc4__messages__msg_set_operating_mode        ./nxt-bc4-messages.o
nxt__bc4__messages__msg_set_operating_mode_result ./nxt-bc4-messages.o
nxt__bc4__messages__msg_start_heart               ./nxt-bc4-messages.o
nxt__bc4__messages__stream_breaking_mode          ./nxt-bc4-messages.o
nxt__bc4__reset_device                            ./nxt-bc4.o
                                                  ./nxt-bluetooth.o
nxt__bc4__send                                    ./nxt-bc4.o
                                                  ./menu_bt.o
                                                  ./nxt-bc4-io.o
nxt__bluetooth(double,...)(void, int, char,...)(int0_t) ./nxt-bluetooth.o
nxt__bluetoothB                                   b~tests.o
nxt__bluetoothS                                   b~tests.o
nxt__bluetooth_E                                  ./nxt-bluetooth.o
                                                  b~tests.o
nxt__bluetooth__Tbt_addressBIP                    ./nxt-bluetooth.o
nxt__bluetooth__Tclass_serviceBIP                 ./nxt-bluetooth.o
nxt__bluetooth__Tfriendly_nameBIP                 ./nxt-bluetooth.o
nxt__bluetooth__Tpin_codeBIP                      ./nxt-bluetooth.o
nxt__bluetooth__accept_connection                 ./nxt-bluetooth.o
nxt__bluetooth__add_known_device                  ./nxt-bluetooth.o
nxt__bluetooth__connect                           ./nxt-bluetooth.o
nxt__bluetooth__convert_to_device                 ./nxt-bluetooth.o
nxt__bluetooth__convert_to_friendly_name          ./nxt-bluetooth.o
nxt__bluetooth__convert_to_packet                 ./nxt-bluetooth.o
nxt__bluetooth__device_listIP                     ./nxt-bluetooth.o
nxt__bluetooth__find_discoverable_devices         ./nxt-bluetooth.o
                                                  ./menu_bt.o
nxt__bluetooth__get_known_peers                   ./nxt-bluetooth.o
                                                  ./menu_bt.o
nxt__bluetooth__handle                            ./nxt-bluetooth.o
nxt__bluetooth__initialize                        ./nxt-bluetooth.o
                                                  ./menu_bt.o
nxt__bluetooth__pause                             ./nxt-bluetooth.o
nxt__bluetooth__set_discoverable                  ./nxt-bluetooth.o
nxt__bluetooth__set_friendly_name                 ./nxt-bluetooth.o
nxt__bluetooth__start_data                        ./nxt-bluetooth.o
nxt__buffersB                                     b~tests.o
nxt__buffers_E                                    ./nxt-buffers.o
nxt__displayB                                     b~tests.o
nxt__displayS                                     b~tests.o
nxt__display_E                                    ./nxt-display.o
                                                  b~tests.o
nxt__display__TscreenBIP                          ./nxt-display.o
nxt__display___elabb                              ./nxt-display.o
                                                  b~tests.o
nxt__display__clear_screen                        ./nxt-display.o
nxt__display__clear_screen_noupdate               ./nxt-display.o
                                                  ./tests.o
                                                  ./menu_bt.o
                                                  ./menu_motors.o
                                                  ./menu_tests.o
                                                  ./menus.o
nxt__display__newline                             ./nxt-display.o
                                                  ./tests.o
                                                  ./menu_bt.o
                                                  ./nxt-last_chance.o
nxt__display__newline_noupdate                    ./nxt-display.o
                                                  ./menu_bt.o
                                                  ./menu_motors.o
                                                  ./menu_tests.o
                                                  ./menus.o
nxt__display__put                                 ./nxt-display.o
                                                  ./menu_bt.o
                                                  ./menu_tests.o
                                                  ./nxt-last_chance.o
nxt__display__put__2                              ./nxt-display.o
                                                  ./menu_bt.o
                                                  ./menus.o
nxt__display__put_hex                             ./nxt-display.o
nxt__display__put_hex__2                          ./nxt-display.o
                                                  ./menu_tests.o
nxt__display__put_hex__3                          ./nxt-display.o
                                                  ./menu_bt.o
                                                  ./menu_tests.o
nxt__display__put_line                            ./nxt-display.o
                                                  ./tests.o
                                                  ./menu_bt.o
                                                  ./nxt-last_chance.o
nxt__display__put_noupdate                        ./nxt-display.o
                                                  ./menu_bt.o
                                                  ./menu_motors.o
                                                  ./menu_tests.o
                                                  ./menus.o
nxt__display__put_noupdate__2                     ./nxt-display.o
                                                  ./menu_bt.o
                                                  ./menu_motors.o
                                                  ./menu_tests.o
                                                  ./menus.o
                                                  ./nxt-last_chance.o
nxt__display__put_noupdate__3                     ./nxt-display.o
                                                  ./menu_motors.o
                                                  ./menu_tests.o
                                                  ./nxt-last_chance.o
nxt__display__put_noupdate__4                     ./nxt-display.o
nxt__display__screen_update                       ./nxt-display.o
                                                  ./menu_bt.o
                                                  ./menu_motors.o
                                                  ./menu_tests.o
                                                  ./menus.o
nxt__display__set_pos                             ./nxt-display.o
nxt__filteringB                                   b~tests.o
nxt__filteringS                                   b~tests.o
nxt__filtering_E                                  ./nxt-filtering.o
                                                  b~tests.o
nxt__fontsS                                       b~tests.o
nxt__fonts_E                                      ./nxt-fonts.o
nxt__fonts__font5x8                               ./nxt-fonts.o
                                                  ./nxt-display.o
nxt__last_chanceB                                 b~tests.o
nxt__last_chanceS                                 b~tests.o
nxt__last_chance_E                                ./nxt-last_chance.o
                                                  b~tests.o
nxt__lcdB                                         b~tests.o
nxt__lcd_E                                        ./nxt-lcd.o
                                                  b~tests.o
nxt__lcd__command                                 ./nxt-lcd.o
nxt__lcd__lcd_lineIP                              ./nxt-lcd.o
nxt__lcd__power_on                                ./nxt-lcd.o
                                                  ./nxt-display.o
nxt__lcd__set_all_pixels_on                       ./nxt-lcd.o
nxt__lcd__set_inverse_display                     ./nxt-lcd.o
nxt__lcd__write                                   ./nxt-lcd.o
                                                  ./nxt-display.o
nxt__motor_encodersB                              b~tests.o
nxt__motor_encodersS                              b~tests.o
nxt__motor_encoders_E                             ./nxt-motor_encoders.o
                                                  b~tests.o
nxt__motor_encoders__TcountersBIP                 ./nxt-motor_encoders.o
nxt__motor_encoders__Tpin_arrayBIP                ./nxt-motor_encoders.o
nxt__motor_encoders___elabb                       ./nxt-motor_encoders.o
                                                  b~tests.o
nxt__motor_encoders__encoder_count                ./nxt-motor_encoders.o
                                                  ./menu_motors.o
nxt__motor_encoders__pioTVIP                      ./nxt-motor_encoders.o
nxt__prioritiesS                                  b~tests.o
nxt__priorities_E                                 ./nxt-priorities.o
nxt__priorities__avr_io_pump_priority             ./nxt-priorities.o
nxt__registersS                                   b~tests.o
nxt__spiB                                         b~tests.o
nxt__spi_E                                        ./nxt-spi.o
                                                  b~tests.o
nxt__spi___elabb                                  ./nxt-spi.o
                                                  b~tests.o
nxt__spi__send                                    ./nxt-spi.o
                                                  ./nxt-lcd.o
nxt__spi__spiTVIP                                 ./nxt-spi.o
nxt__twi(long double,...)(char, void)             ./nxt-twi.o
                                                  ./nxt-avr_io.o
nxt__twiB                                         b~tests.o
nxt__twiS                                         b~tests.o
nxt__twi_E                                        ./nxt-twi.o
                                                  b~tests.o
nxt__twi___elabb                                  ./nxt-twi.o
                                                  b~tests.o
nxt__twi__send                                    ./nxt-twi.o
                                                  ./nxt-avr_io.o
nxt__twi__twiTVIP                                 ./nxt-twi.o
nxt_main                                          main.o
                                                  init.o
prefetch_abort_handler                            init.o
                                                  vectors.o
put_exception                                     ./nxt-display.o
                                                  main.o
reserved_handler                                  init.o
                                                  vectors.o
slave_stack_table                                 ./s-bbthre.o
start                                             init.o
                                                  vectors.o
swi_handler                                       init.o
                                                  vectors.o
system(bool, bool, signed)                        b~tests.o
systemS                                           b~tests.o
system_E                                          ./system.o
system__always_compatible_rep                     ./system.o
system__backend_divide_checks                     ./system.o
system__backend_overflow_checks                   ./system.o
system__bb_E                                      ./s-bb.o
system__bb__cpu_primitives(long, long double)     ./s-bbcppr.o
system__bb__cpu_primitives(short,  *)             ./s-bbcppr.o
system__bb__cpu_primitivesB                       b~tests.o
system__bb__cpu_primitivesS                       b~tests.o
system__bb__cpu_primitives_E                      ./s-bbcppr.o
system__bb__cpu_primitives__Tcontext_bufferBIP    ./s-bbcppr.o
system__bb__cpu_primitives__arg                   ./s-bbcppr.o
system__bb__cpu_primitives__disable_interrupts    ./s-bbcppr.o
                                                  ./s-tpobmu.o
                                                  ./s-bbprot.o
system__bb__cpu_primitives__enable_interrupts     ./s-bbcppr.o
                                                  ./s-tpobmu.o
                                                  ./s-bbprot.o
system__bb__cpu_primitives__flag_f                ./s-bbcppr.o
system__bb__cpu_primitives__flag_i                ./s-bbcppr.o
system__bb__cpu_primitives__initialize_context    ./s-bbcppr.o
                                                  ./s-bbthre.o
system__bb__cpu_primitives__initialize_floating_point ./s-bbcppr.o
                                                  ./s-bbthre.o
system__bb__cpu_primitives__multiprocessorsB      b~tests.o
system__bb__cpu_primitives__multiprocessorsS      b~tests.o
system__bb__cpu_primitives__multiprocessors_E     ./s-bcprmu.o
system__bb__cpu_primitives__multiprocessors__current_cpu ./s-bcprmu.o
                                                  ./s-mufalo.o
                                                  ./s-bbthre.o
                                                  ./s-bbthqu.o
system__bb__cpu_primitives__multiprocessors__poke_cpu ./s-bcprmu.o
                                                  ./s-tpobmu.o
system__bb__cpu_primitives__multiprocessors__start_all_cpus ./s-bcprmu.o
system__bb__cpu_primitives__multiprocessors__start_cpu ./s-bcprmu.o
system__bb__interruptsB                           b~tests.o
system__bb__interruptsS                           b~tests.o
system__bb__interrupts_E                          ./s-bbinte.o
                                                  b~tests.o
system__bb__interrupts__Tinterrupt_handlersBIP    ./s-bbinte.o
system__bb__interrupts___elabb                    ./s-bbinte.o
                                                  b~tests.o
system__bb__interrupts__attach_handler            ./s-bbinte.o
                                                  ./s-interr.o
system__bb__interrupts__attach_handler__2         ./s-bbinte.o
                                                  ./s-bbtime.o
system__bb__interrupts__current_interrupt         ./s-bbinte.o
                                                  ./s-taprop.o
system__bb__interrupts__disable_interrupt         ./s-bbinte.o
                                                  ./nxt-twi.o
                                                  ./nxt-spi.o
                                                  ./nxt-audio.o
                                                  ./s-bbtime.o
system__bb__interrupts__enable_interrupt          ./s-bbinte.o
                                                  ./nxt-twi.o
                                                  ./nxt-spi.o
                                                  ./nxt-motor_encoders.o
                                                  ./nxt-audio.o
                                                  ./s-bbtime.o
system__bb__interrupts__initialize_interrupts     ./s-bbinte.o
                                                  ./s-bbthre.o
system__bb__interrupts__interrupt_being_handled   ./s-bbinte.o
system__bb__interrupts__interrupt_handlers        ./s-bbinte.o
system__bb__interrupts__no_interrupt              ./s-bbinte.o
system__bb__interrupts__within_interrupt_stack    ./s-bbinte.o
system__bb__parametersS                           b~tests.o
system__bb__parameters_E                          ./s-bbpara.o
system__bb__parameters__clock_frequency           ./s-bbpara.o
system__bb__parameters__interrupt_levels          ./s-bbpara.o
system__bb__parameters__multiprocessor            ./s-bbpara.o
system__bb__peripheralsB                          b~tests.o
system__bb__peripheralsS                          b~tests.o
system__bb__peripherals_E                         ./s-bbperi.o
system__bb__peripherals__initialize_board         ./s-bbperi.o
                                                  ./s-bbthre.o
system__bb__peripherals__level_of_interrupt       ./s-bbperi.o
system__bb__peripherals__priority_of_interrupt    ./s-bbperi.o
system__bb__peripherals__registersS               b~tests.o
system__bb__peripherals__registers_E              ./s-bbpere.o
system__bb__peripherals__registers__Tadc_cdrBIP   ./s-bbpere.o
system__bb__peripherals__registers__Taic_smr_arrayBIP ./s-bbpere.o
system__bb__peripherals__registers__Taic_svr_arrayBIP ./s-bbpere.o
system__bb__peripherals__ticks_per_second         ./s-bbperi.o
                                                  ./a-reatim.o
system__bb__protectionB                           b~tests.o
system__bb__protectionS                           b~tests.o
system__bb__protection_E                          ./s-bbprot.o
system__bb__protection__enter_kernel              ./s-bbprot.o
                                                  ./s-bbtime.o
                                                  ./s-bbthre.o
system__bb__protection__leave_kernel              ./s-bbprot.o
                                                  ./s-bbtime.o
                                                  ./s-bbthre.o
system__bb__protection__wakeup_served_entry_callback ./s-bbprot.o
                                                  ./s-tpobmu.o
system__bb__threads(short, long,...)(...)( *)     ./s-bbthre.o
                                                  ./s-taprop.o
system__bb__threadsB                              b~tests.o
system__bb__threadsS                              b~tests.o
system__bb__threads_E                             ./s-bbthre.o
system__bb__threads__Tslave_stacksBIP             ./s-bbthre.o
system__bb__threads__Tslave_stacks_tableBIP       ./s-bbthre.o
system__bb__threads__get_affinity                 ./s-bbthre.o
                                                  ./s-taprop.o
system__bb__threads__get_atcb                     ./s-bbthre.o
                                                  ./s-taprop.o
system__bb__threads__get_cpu                      ./s-bbthre.o
                                                  ./s-taprop.o
                                                  ./s-bbthqu.o
system__bb__threads__get_priority                 ./s-bbthre.o
                                                  ./s-taprop.o
                                                  ./s-bbinte.o
system__bb__threads__initialize                   ./s-bbthre.o
                                                  ./s-taprop.o
system__bb__threads__initialize_slave_environment ./s-bbthre.o
                                                  ./s-taprop.o
system__bb__threads__initialized                  ./s-bbthre.o
system__bb__threads__null_thread_id               ./s-bbthre.o
system__bb__threads__queuesB                      b~tests.o
system__bb__threads__queuesS                      b~tests.o
system__bb__threads__queues_E                     ./s-bbthqu.o
system__bb__threads__queues__alarms_table         ./s-bbthqu.o
system__bb__threads__queues__change_priority      ./s-bbthqu.o
                                                  ./s-bbinte.o
                                                  ./s-bbthre.o
system__bb__threads__queues__current_priority     ./s-bbthqu.o
                                                  ./s-tpobmu.o
system__bb__threads__queues__extract              ./s-bbthqu.o
                                                  ./s-bbprot.o
                                                  ./s-bbtime.o
                                                  ./s-bbthre.o
system__bb__threads__queues__extract_first_alarm  ./s-bbthqu.o
                                                  ./s-bbtime.o
system__bb__threads__queues__first_thread         ./s-bbthqu.o
                                                  ./s-bbprot.o
system__bb__threads__queues__get_next_alarm_time  ./s-bbthqu.o
                                                  ./s-bbtime.o
system__bb__threads__queues__global_list          ./s-bbthqu.o
                                                  ./s-bbthre.o
system__bb__threads__queues__insert               ./s-bbthqu.o
                                                  ./s-bbprot.o
                                                  ./s-bbtime.o
                                                  ./s-bbthre.o
system__bb__threads__queues__insert_alarm         ./s-bbthqu.o
                                                  ./s-bbtime.o
system__bb__threads__queues__running_thread       ./s-bbthqu.o
                                                  ./s-tpobmu.o
                                                  ./s-bbprot.o
                                                  ./s-bbthre.o
system__bb__threads__queues__wakeup_expired_alarms ./s-bbthqu.o
system__bb__threads__queues__yield                ./s-bbthqu.o
                                                  ./s-bbtime.o
system__bb__threads__set_atcb                     ./s-bbthre.o
                                                  ./s-taprop.o
system__bb__threads__set_priority                 ./s-bbthre.o
                                                  ./s-taprop.o
system__bb__threads__slave_stacks                 ./s-bbthre.o
system__bb__threads__thread_create                ./s-bbthre.o
                                                  ./s-taprop.o
system__bb__threads__thread_descriptorIP          ./s-bbthre.o
system__bb__threads__thread_self                  ./s-bbthre.o
                                                  ./s-bbtime.o
                                                  ./s-bbinte.o
system__bb__threads__wakeup                       ./s-bbthre.o
                                                  ./s-taprop.o
system__bb__timeB                                 b~tests.o
system__bb__timeS                                 b~tests.o
system__bb__time_E                                ./s-bbtime.o
system__bb__time__clock                           ./s-bbtime.o
                                                  ./s-taprop.o
                                                  ./s-bbprot.o
                                                  ./s-bbthqu.o
system__bb__time__delay_until                     ./s-bbtime.o
                                                  ./s-taprop.o
system__bb__time__get_next_timeout                ./s-bbtime.o
                                                  ./s-bbthqu.o
system__bb__time__initialize_timers               ./s-bbtime.o
                                                  ./s-bbthre.o
system__bb__time__tick                            ./s-bbtime.o
system__bb__time__ticks_per_second                ./s-bbtime.o
system__bb__time__update_alarm                    ./s-bbtime.o
                                                  ./s-bbthqu.o
system__command_line_args                         ./system.o
system__configurable_run_time                     ./system.o
system__default_bit_order                         ./system.o
system__default_priority                          ./system.o
system__denorm                                    ./system.o
system__duration_32_bits                          ./system.o
system__exit_status_supported                     ./system.o
system__fractional_fixed_ops                      ./system.o
system__frontend_layout                           ./system.o
system__gcc_zcx_support                           ./system.o
system__interruptsB                               b~tests.o
system__interruptsS                               b~tests.o
system__interrupts_E                              ./s-interr.o
system__interrupts__E3sIP                         ./s-interr.o
system__interrupts__default_handler               ./s-interr.o
system__interrupts__default_interrupt_priority    ./s-interr.o
system__interrupts__handler_arrayIP               ./s-interr.o
system__interrupts__handler_itemIP                ./s-interr.o
system__interrupts__install_handler               ./s-interr.o
system__interrupts__install_restricted_handlers   ./s-interr.o
                                                  ./nxt-twi.o
                                                  ./nxt-spi.o
                                                  ./nxt-motor_encoders.o
                                                  ./nxt-audio.o
system__interrupts__user_handlers                 ./s-interr.o
system__machine_codeS                             b~tests.o
system__machine_code_E                            ./s-maccod.o
system__machine_code__asm_input_operand_listIP    ./s-maccod.o
system__machine_code__asm_output_operand_listIP   ./s-maccod.o
system__machine_code__no_input_operands           ./s-maccod.o
system__machine_code__no_output_operands          ./s-maccod.o
system__machine_overflows                         ./system.o
system__machine_rounds                            ./system.o
system__max_interrupt_priority                    ./system.o
system__max_priority                              ./system.o
system__multiprocessorsB                          b~tests.o
system__multiprocessorsS                          b~tests.o
system__multiprocessors_E                         ./s-multip.o
system__multiprocessors__fair_locksB              b~tests.o
system__multiprocessors__fair_locksS              b~tests.o
system__multiprocessors__fair_locks_E             ./s-mufalo.o
system__multiprocessors__fair_locks__Tspinning_arrayBIP ./s-mufalo.o
system__multiprocessors__fair_locks__fair_lockIP  ./s-mufalo.o
system__multiprocessors__fair_locks__initialize   ./s-mufalo.o
                                                  ./s-taprob.o
system__multiprocessors__fair_locks__lock         ./s-mufalo.o
                                                  ./s-tpobmu.o
system__multiprocessors__fair_locks__locked       ./s-mufalo.o
system__multiprocessors__fair_locks__multiprocessor ./s-mufalo.o
system__multiprocessors__fair_locks__next_spinning ./s-mufalo.o
system__multiprocessors__fair_locks__try_lock     ./s-mufalo.o
system__multiprocessors__fair_locks__unlock       ./s-mufalo.o
                                                  ./s-tpobmu.o
system__multiprocessors__not_a_specific_cpu       ./s-multip.o
system__multiprocessors__number_of_cpus           ./s-multip.o
                                                  ./s-tarest.o
                                                  ./s-taskin.o
system__multiprocessors__spin_locksB              b~tests.o
system__multiprocessors__spin_locksS              b~tests.o
system__multiprocessors__spin_locks_E             ./s-musplo.o
system__multiprocessors__spin_locks__lock         ./s-musplo.o
system__multiprocessors__spin_locks__locked       ./s-musplo.o
                                                  ./s-mufalo.o
system__multiprocessors__spin_locks__spin_lockIP  ./s-musplo.o
system__multiprocessors__spin_locks__try_lock     ./s-musplo.o
                                                  ./s-mufalo.o
system__multiprocessors__spin_locks__unlock       ./s-musplo.o
                                                  ./s-mufalo.o
system__multiprocessors__spin_locks__unlocked     ./s-musplo.o
system__null_address                              ./system.o
system__os_interfaceS                             b~tests.o
system__os_interface_E                            ./s-osinte.o
system__os_interface__lwp_self                    ./s-osinte.o
system__os_interface__no_interrupt                ./s-osinte.o
system__os_interface__null_thread_id              ./s-osinte.o
system__parametersB                               b~tests.o
system__parametersS                               b~tests.o
system__parameters_E                              ./s-parame.o
system__parameters__adjust_storage_size           ./s-parame.o
                                                  ./s-taskin.o
system__parameters__c_malloc_linkname             ./s-parame.o
system__parameters__default_stack_size            ./s-parame.o
system__parameters__dynamic                       ./s-parame.o
system__parameters__garbage_collected             ./s-parame.o
system__parameters__minimum_stack_size            ./s-parame.o
system__parameters__no_abort                      ./s-parame.o
system__parameters__runtime_traces                ./s-parame.o
system__parameters__sec_stack_dynamic             ./s-parame.o
system__parameters__sec_stack_ratio               ./s-parame.o
system__parameters__single_lock                   ./s-parame.o
system__parameters__stack_grows_down              ./s-parame.o
system__parameters__unspecified_size              ./s-parame.o
system__preallocated_stacks                       ./system.o
system__secondary_stackB                          b~tests.o
system__secondary_stackS                          b~tests.o
system__secondary_stack_E                         ./s-secsta.o
system__secondary_stack__memoryIP                 ./s-secsta.o
system__secondary_stack__ss_allocate              ./s-secsta.o
system__secondary_stack__ss_init                  ./s-secsta.o
                                                  ./s-tarest.o
                                                  ./s-taskin.o
system__secondary_stack__ss_mark                  ./s-secsta.o
system__secondary_stack__ss_pool                  ./s-secsta.o
system__secondary_stack__ss_release               ./s-secsta.o
system__signed_zeros                              ./system.o
system__stack_check_default                       ./system.o
system__stack_check_limits                        ./system.o
system__stack_check_probes                        ./system.o
system__storage_elementsB                         b~tests.o
system__storage_elementsS                         b~tests.o
system__storage_elements_E                        ./s-stoele.o
system__storage_elements__Oadd                    ./s-stoele.o
system__storage_elements__Oadd__2                 ./s-stoele.o
system__storage_elements__Omod                    ./s-stoele.o
system__storage_elements__Osubtract               ./s-stoele.o
system__storage_elements__Osubtract__2            ./s-stoele.o
system__storage_elements__storage_arrayIP         ./s-stoele.o
system__storage_elements__to_address              ./s-stoele.o
system__storage_elements__to_integer              ./s-stoele.o
system__support_64_bit_divides                    ./system.o
system__support_aggregates                        ./system.o
system__support_composite_assign                  ./system.o
system__support_composite_compare                 ./system.o
system__support_long_shifts                       ./system.o
system__suppress_standard_library                 ./system.o
system__system_name                               ./system.o
system__task_infoB                                b~tests.o
system__task_infoS                                b~tests.o
system__task_info_E                               ./s-tasinf.o
system__task_info__unspecified_task_info          ./s-tasinf.o
system__task_primitivesS                          b~tests.o
system__task_primitives_E                         ./s-taspri.o
system__task_primitives__operations(short, long,...)(...)( *) ./s-taprop.o
                                                  ./s-tarest.o
                                                  ./s-tposen.o
                                                  ./s-taskin.o
system__task_primitives__operations(short,...)(long, float) ./s-taprop.o
                                                  ./s-tarest.o
                                                  ./s-tposen.o
                                                  ./s-tpobmu.o
                                                  ./s-taskin.o
                                                  ./a-retide.o
system__task_primitives__operationsB              b~tests.o
system__task_primitives__operationsS              b~tests.o
system__task_primitives__operations_E             ./s-taprop.o
system__task_primitives__operations__create_task  ./s-taprop.o
                                                  ./s-tarest.o
system__task_primitives__operations__delay_until  ./s-taprop.o
                                                  ./a-retide.o
system__task_primitives__operations__enter_task   ./s-taprop.o
                                                  ./s-tarest.o
system__task_primitives__operations__get_affinity ./s-taprop.o
system__task_primitives__operations__get_cpu      ./s-taprop.o
                                                  ./s-tpobmu.o
system__task_primitives__operations__get_priority ./s-taprop.o
                                                  ./s-tpobmu.o
                                                  ./s-taprob.o
system__task_primitives__operations__get_thread_id ./s-taprop.o
system__task_primitives__operations__initialize   ./s-taprop.o
                                                  ./s-taskin.o
system__task_primitives__operations__initialize_slave ./s-taprop.o
                                                  ./s-taskin.o
system__task_primitives__operations__initialize_tcb ./s-taprop.o
                                                  ./s-taskin.o
system__task_primitives__operations__is_task_context ./s-taprop.o
system__task_primitives__operations__monotonic_clock ./s-taprop.o
                                                  ./a-reatim.o
system__task_primitives__operations__set_priority ./s-taprop.o
                                                  ./s-tarest.o
                                                  ./s-taprob.o
                                                  ./s-taskin.o
system__task_primitives__operations__wakeup       ./s-taprop.o
                                                  ./s-tposen.o
                                                  ./s-tpobmu.o
system__task_primitives__private_dataIP           ./s-taspri.o
system__tasking(short,...)(long, float)           ./s-taskin.o
                                                  ./s-tarest.o
                                                  ./s-taprob.o
system__taskingB                                  b~tests.o
system__taskingS                                  b~tests.o
system__tasking_E                                 ./s-taskin.o
system__tasking__E5sIP                            ./s-taskin.o
system__tasking__Tenvironment_tableBIP            ./s-taskin.o
system__tasking__activation_chainIP               ./s-taskin.o
system__tasking__debugB                           b~tests.o
system__tasking__debugS                           b~tests.o
system__tasking__debug_E                          ./s-tasdeb.o
system__tasking__debug__add_task_id               ./s-tasdeb.o
                                                  ./s-taprop.o
system__tasking__debug__first_task                ./s-tasdeb.o
system__tasking__debug__last_task                 ./s-tasdeb.o
system__tasking__fall_back_handler                ./s-taskin.o
                                                  ./s-tarest.o
system__tasking__initialize                       ./s-taskin.o
                                                  ./s-tarest.o
                                                  ./s-taprob.o
                                                  ./a-reatim.o
system__tasking__initialize_atcb                  ./s-taskin.o
                                                  ./s-tarest.o
system__tasking__library_task_level               ./s-taskin.o
system__tasking__null_task                        ./s-taskin.o
system__tasking__protected_objectsB               b~tests.o
system__tasking__protected_objectsS               b~tests.o
system__tasking__protected_objects_E              ./s-taprob.o
                                                  b~tests.o
system__tasking__protected_objects___elabb        ./s-taprob.o
                                                  b~tests.o
system__tasking__protected_objects__entry_bodyIP  ./s-taprob.o
system__tasking__protected_objects__initialize_protection ./s-taprob.o
                                                  ./nxt-motor_encoders.o
                                                  ./nxt-audio.o
                                                  ./s-tposen.o
system__tasking__protected_objects__lock          ./s-taprob.o
                                                  ./nxt-motor_encoders.o
                                                  ./nxt-audio.o
                                                  ./s-tposen.o
system__tasking__protected_objects__multiprocessors(short,...)(long double, void,...)(double) ./s-tpobmu.o
system__tasking__protected_objects__multiprocessorsB b~tests.o
system__tasking__protected_objects__multiprocessorsS b~tests.o
system__tasking__protected_objects__multiprocessors_E ./s-tpobmu.o
                                                  b~tests.o
system__tasking__protected_objects__multiprocessors___elabb ./s-tpobmu.o
                                                  b~tests.o
system__tasking__protected_objects__multiprocessors__entry_call_listIP ./s-tpobmu.o
system__tasking__protected_objects__multiprocessors__wakeup_served_entry ./s-tpobmu.o
system__tasking__protected_objects__null_po       ./s-taprob.o
system__tasking__protected_objects__protectionIP  ./s-taprob.o
system__tasking__protected_objects__single_entryB b~tests.o
system__tasking__protected_objects__single_entryS b~tests.o
system__tasking__protected_objects__single_entry_E ./s-tposen.o
system__tasking__protected_objects__single_entry__complete_single_entry_body ./s-tposen.o
                                                  ./nxt-twi.o
                                                  ./nxt-spi.o
system__tasking__protected_objects__single_entry__initialize_protection_entry ./s-tposen.o
                                                  ./nxt-twi.o
                                                  ./nxt-spi.o
system__tasking__protected_objects__single_entry__lock_entry ./s-tposen.o
                                                  ./nxt-twi.o
                                                  ./nxt-spi.o
system__tasking__protected_objects__single_entry__multiprocessor ./s-tposen.o
system__tasking__protected_objects__single_entry__protected_count_entry ./s-tposen.o
system__tasking__protected_objects__single_entry__protected_single_entry_call ./s-tposen.o
                                                  ./nxt-twi.o
                                                  ./nxt-spi.o
system__tasking__protected_objects__single_entry__protected_single_entry_caller ./s-tposen.o
system__tasking__protected_objects__single_entry__service_entry ./s-tposen.o
                                                  ./nxt-twi.o
                                                  ./nxt-spi.o
system__tasking__protected_objects__single_entry__unlock_entry ./s-tposen.o
system__tasking__protected_objects__unlock        ./s-taprob.o
                                                  ./nxt-motor_encoders.o
                                                  ./nxt-audio.o
                                                  ./s-tposen.o
system__tasking__restrictedS                      b~tests.o
system__tasking__restricted_E                     ./s-tasres.o
system__tasking__restricted__stagesB              b~tests.o
system__tasking__restricted__stagesS              b~tests.o
system__tasking__restricted__stages_E             ./s-tarest.o
                                                  b~tests.o
system__tasking__restricted__stages___elabb       ./s-tarest.o
                                                  b~tests.o
system__tasking__restricted__stages__activate_restricted_tasks ./s-tarest.o
                                                  ./nxt-avr.o
system__tasking__restricted__stages__complete_restricted_activation ./s-tarest.o
                                                  ./nxt-avr.o
system__tasking__restricted__stages__complete_restricted_task ./s-tarest.o
system__tasking__restricted__stages__create_restricted_task ./s-tarest.o
                                                  ./nxt-avr.o
system__tasking__restricted__stages__finalize_global_tasks ./s-tarest.o
system__tasking__restricted__stages__restricted_terminated ./s-tarest.o
system__tasking__storage_size                     ./s-taskin.o
system__tasking__unspecified_priority             ./s-taskin.o
system__unsigned_typesS                           b~tests.o
system__unsigned_types_E                          ./s-unstyp.o
system__unsigned_types__packed_bytes1IP           ./s-unstyp.o
system__use_ada_main_program_name                 ./system.o
system__zcx_by_default                            ./system.o
tasking_error                                     ./s-taskin.o
testsB                                            b~tests.o
undef_handler                                     init.o
                                                  vectors.o
